
WaterTankTrial.elf:     file format elf32-avr

Sections:
Idx Name          Size      VMA       LMA       File off  Algn
  0 .data         00000054  00800100  0000185a  000018ee  2**0
                  CONTENTS, ALLOC, LOAD, DATA
  1 .text         0000185a  00000000  00000000  00000094  2**1
                  CONTENTS, ALLOC, LOAD, READONLY, CODE
  2 .bss          00000033  00800154  00800154  00001942  2**0
                  ALLOC
  3 .comment      00000030  00000000  00000000  00001942  2**0
                  CONTENTS, READONLY
  4 .note.gnu.avr.deviceinfo 00000040  00000000  00000000  00001974  2**2
                  CONTENTS, READONLY
  5 .debug_info   000005f4  00000000  00000000  000019b4  2**0
                  CONTENTS, READONLY, DEBUGGING
  6 .debug_abbrev 000005a2  00000000  00000000  00001fa8  2**0
                  CONTENTS, READONLY, DEBUGGING
  7 .debug_line   00000134  00000000  00000000  0000254a  2**0
                  CONTENTS, READONLY, DEBUGGING
  8 .debug_str    00000208  00000000  00000000  0000267e  2**0
                  CONTENTS, READONLY, DEBUGGING

Disassembly of section .text:

00000000 <__vectors>:
       0:	0c 94 34 00 	jmp	0x68	; 0x68 <__ctors_end>
       4:	0c 94 51 00 	jmp	0xa2	; 0xa2 <__bad_interrupt>
       8:	0c 94 51 00 	jmp	0xa2	; 0xa2 <__bad_interrupt>
       c:	0c 94 51 00 	jmp	0xa2	; 0xa2 <__bad_interrupt>
      10:	0c 94 51 00 	jmp	0xa2	; 0xa2 <__bad_interrupt>
      14:	0c 94 51 00 	jmp	0xa2	; 0xa2 <__bad_interrupt>
      18:	0c 94 51 00 	jmp	0xa2	; 0xa2 <__bad_interrupt>
      1c:	0c 94 51 00 	jmp	0xa2	; 0xa2 <__bad_interrupt>
      20:	0c 94 51 00 	jmp	0xa2	; 0xa2 <__bad_interrupt>
      24:	0c 94 51 00 	jmp	0xa2	; 0xa2 <__bad_interrupt>
      28:	0c 94 40 04 	jmp	0x880	; 0x880 <__vector_10>
      2c:	0c 94 28 04 	jmp	0x850	; 0x850 <__vector_11>
      30:	0c 94 51 00 	jmp	0xa2	; 0xa2 <__bad_interrupt>
      34:	0c 94 51 00 	jmp	0xa2	; 0xa2 <__bad_interrupt>
      38:	0c 94 51 00 	jmp	0xa2	; 0xa2 <__bad_interrupt>
      3c:	0c 94 51 00 	jmp	0xa2	; 0xa2 <__bad_interrupt>
      40:	0c 94 51 00 	jmp	0xa2	; 0xa2 <__bad_interrupt>
      44:	0c 94 51 00 	jmp	0xa2	; 0xa2 <__bad_interrupt>
      48:	0c 94 51 00 	jmp	0xa2	; 0xa2 <__bad_interrupt>
      4c:	0c 94 51 00 	jmp	0xa2	; 0xa2 <__bad_interrupt>
      50:	0c 94 51 00 	jmp	0xa2	; 0xa2 <__bad_interrupt>
      54:	0c 94 f3 06 	jmp	0xde6	; 0xde6 <__vector_21>
      58:	0c 94 51 00 	jmp	0xa2	; 0xa2 <__bad_interrupt>
      5c:	0c 94 51 00 	jmp	0xa2	; 0xa2 <__bad_interrupt>
      60:	0c 94 51 00 	jmp	0xa2	; 0xa2 <__bad_interrupt>
      64:	0c 94 51 00 	jmp	0xa2	; 0xa2 <__bad_interrupt>

00000068 <__ctors_end>:
      68:	11 24       	eor	r1, r1
      6a:	1f be       	out	0x3f, r1	; 63
      6c:	cf ef       	ldi	r28, 0xFF	; 255
      6e:	d8 e0       	ldi	r29, 0x08	; 8
      70:	de bf       	out	0x3e, r29	; 62
      72:	cd bf       	out	0x3d, r28	; 61

00000074 <__do_copy_data>:
      74:	11 e0       	ldi	r17, 0x01	; 1
      76:	a0 e0       	ldi	r26, 0x00	; 0
      78:	b1 e0       	ldi	r27, 0x01	; 1
      7a:	ea e5       	ldi	r30, 0x5A	; 90
      7c:	f8 e1       	ldi	r31, 0x18	; 24
      7e:	02 c0       	rjmp	.+4      	; 0x84 <__do_copy_data+0x10>
      80:	05 90       	lpm	r0, Z+
      82:	0d 92       	st	X+, r0
      84:	a4 35       	cpi	r26, 0x54	; 84
      86:	b1 07       	cpc	r27, r17
      88:	d9 f7       	brne	.-10     	; 0x80 <__do_copy_data+0xc>

0000008a <__do_clear_bss>:
      8a:	21 e0       	ldi	r18, 0x01	; 1
      8c:	a4 e5       	ldi	r26, 0x54	; 84
      8e:	b1 e0       	ldi	r27, 0x01	; 1
      90:	01 c0       	rjmp	.+2      	; 0x94 <.do_clear_bss_start>

00000092 <.do_clear_bss_loop>:
      92:	1d 92       	st	X+, r1

00000094 <.do_clear_bss_start>:
      94:	a7 38       	cpi	r26, 0x87	; 135
      96:	b2 07       	cpc	r27, r18
      98:	e1 f7       	brne	.-8      	; 0x92 <.do_clear_bss_loop>
      9a:	0e 94 cd 06 	call	0xd9a	; 0xd9a <main>
      9e:	0c 94 2b 0c 	jmp	0x1856	; 0x1856 <_exit>

000000a2 <__bad_interrupt>:
      a2:	0c 94 00 00 	jmp	0	; 0x0 <__vectors>

000000a6 <bme280_read1Byte>:
      a6:	cf 93       	push	r28
      a8:	c8 2f       	mov	r28, r24
      aa:	8e ee       	ldi	r24, 0xEE	; 238
      ac:	0e 94 ed 04 	call	0x9da	; 0x9da <i2c_start>
      b0:	8c 2f       	mov	r24, r28
      b2:	0e 94 15 05 	call	0xa2a	; 0xa2a <i2c_byte>
      b6:	0e 94 11 05 	call	0xa22	; 0xa22 <i2c_stop>
      ba:	8f ee       	ldi	r24, 0xEF	; 239
      bc:	0e 94 ed 04 	call	0x9da	; 0x9da <i2c_start>
      c0:	0e 94 3e 05 	call	0xa7c	; 0xa7c <i2c_readNAck>
      c4:	c8 2f       	mov	r28, r24
      c6:	0e 94 11 05 	call	0xa22	; 0xa22 <i2c_stop>
      ca:	8c 2f       	mov	r24, r28
      cc:	cf 91       	pop	r28
      ce:	08 95       	ret

000000d0 <bme280_read2Byte>:
      d0:	cf 93       	push	r28
      d2:	df 93       	push	r29
      d4:	c8 2f       	mov	r28, r24
      d6:	8e ee       	ldi	r24, 0xEE	; 238
      d8:	0e 94 ed 04 	call	0x9da	; 0x9da <i2c_start>
      dc:	8c 2f       	mov	r24, r28
      de:	0e 94 15 05 	call	0xa2a	; 0xa2a <i2c_byte>
      e2:	0e 94 11 05 	call	0xa22	; 0xa22 <i2c_stop>
      e6:	8f ee       	ldi	r24, 0xEF	; 239
      e8:	0e 94 ed 04 	call	0x9da	; 0x9da <i2c_start>
      ec:	0e 94 29 05 	call	0xa52	; 0xa52 <i2c_readAck>
      f0:	c8 2f       	mov	r28, r24
      f2:	d0 e0       	ldi	r29, 0x00	; 0
      f4:	dc 2f       	mov	r29, r28
      f6:	cc 27       	eor	r28, r28
      f8:	0e 94 3e 05 	call	0xa7c	; 0xa7c <i2c_readNAck>
      fc:	c8 2b       	or	r28, r24
      fe:	0e 94 11 05 	call	0xa22	; 0xa22 <i2c_stop>
     102:	ce 01       	movw	r24, r28
     104:	df 91       	pop	r29
     106:	cf 91       	pop	r28
     108:	08 95       	ret

0000010a <bme280_read3Byte>:
     10a:	cf 92       	push	r12
     10c:	df 92       	push	r13
     10e:	ef 92       	push	r14
     110:	ff 92       	push	r15
     112:	f8 2e       	mov	r15, r24
     114:	8e ee       	ldi	r24, 0xEE	; 238
     116:	0e 94 ed 04 	call	0x9da	; 0x9da <i2c_start>
     11a:	8f 2d       	mov	r24, r15
     11c:	0e 94 15 05 	call	0xa2a	; 0xa2a <i2c_byte>
     120:	0e 94 11 05 	call	0xa22	; 0xa22 <i2c_stop>
     124:	8f ee       	ldi	r24, 0xEF	; 239
     126:	0e 94 ed 04 	call	0x9da	; 0x9da <i2c_start>
     12a:	0e 94 29 05 	call	0xa52	; 0xa52 <i2c_readAck>
     12e:	c8 2e       	mov	r12, r24
     130:	d1 2c       	mov	r13, r1
     132:	e1 2c       	mov	r14, r1
     134:	f1 2c       	mov	r15, r1
     136:	fe 2c       	mov	r15, r14
     138:	ed 2c       	mov	r14, r13
     13a:	dc 2c       	mov	r13, r12
     13c:	cc 24       	eor	r12, r12
     13e:	0e 94 29 05 	call	0xa52	; 0xa52 <i2c_readAck>
     142:	c8 2a       	or	r12, r24
     144:	fe 2c       	mov	r15, r14
     146:	ed 2c       	mov	r14, r13
     148:	dc 2c       	mov	r13, r12
     14a:	cc 24       	eor	r12, r12
     14c:	0e 94 3e 05 	call	0xa7c	; 0xa7c <i2c_readNAck>
     150:	c8 2a       	or	r12, r24
     152:	0e 94 11 05 	call	0xa22	; 0xa22 <i2c_stop>
     156:	c7 01       	movw	r24, r14
     158:	b6 01       	movw	r22, r12
     15a:	ff 90       	pop	r15
     15c:	ef 90       	pop	r14
     15e:	df 90       	pop	r13
     160:	cf 90       	pop	r12
     162:	08 95       	ret

00000164 <bme280_readTemperature>:
     164:	4f 92       	push	r4
     166:	5f 92       	push	r5
     168:	6f 92       	push	r6
     16a:	7f 92       	push	r7
     16c:	8f 92       	push	r8
     16e:	9f 92       	push	r9
     170:	af 92       	push	r10
     172:	bf 92       	push	r11
     174:	cf 92       	push	r12
     176:	df 92       	push	r13
     178:	ef 92       	push	r14
     17a:	ff 92       	push	r15
     17c:	0f 93       	push	r16
     17e:	1f 93       	push	r17
     180:	cf 93       	push	r28
     182:	df 93       	push	r29
     184:	8a ef       	ldi	r24, 0xFA	; 250
     186:	0e 94 85 00 	call	0x10a	; 0x10a <bme280_read3Byte>
     18a:	6b 01       	movw	r12, r22
     18c:	7c 01       	movw	r14, r24
     18e:	c1 14       	cp	r12, r1
     190:	d1 04       	cpc	r13, r1
     192:	80 e8       	ldi	r24, 0x80	; 128
     194:	e8 06       	cpc	r14, r24
     196:	f1 04       	cpc	r15, r1
     198:	09 f4       	brne	.+2      	; 0x19c <bme280_readTemperature+0x38>
     19a:	8c c0       	rjmp	.+280    	; 0x2b4 <bme280_readTemperature+0x150>
     19c:	c0 91 55 01 	lds	r28, 0x0155	; 0x800155 <_bme280_calib>
     1a0:	d0 91 56 01 	lds	r29, 0x0156	; 0x800156 <_bme280_calib+0x1>
     1a4:	e0 91 57 01 	lds	r30, 0x0157	; 0x800157 <_bme280_calib+0x2>
     1a8:	f0 91 58 01 	lds	r31, 0x0158	; 0x800158 <_bme280_calib+0x3>
     1ac:	4d 2c       	mov	r4, r13
     1ae:	5e 2c       	mov	r5, r14
     1b0:	6f 2c       	mov	r6, r15
     1b2:	77 24       	eor	r7, r7
     1b4:	20 91 55 01 	lds	r18, 0x0155	; 0x800155 <_bme280_calib>
     1b8:	30 91 56 01 	lds	r19, 0x0156	; 0x800156 <_bme280_calib+0x1>
     1bc:	60 91 55 01 	lds	r22, 0x0155	; 0x800155 <_bme280_calib>
     1c0:	70 91 56 01 	lds	r23, 0x0156	; 0x800156 <_bme280_calib+0x1>
     1c4:	00 91 59 01 	lds	r16, 0x0159	; 0x800159 <_bme280_calib+0x4>
     1c8:	10 91 5a 01 	lds	r17, 0x015A	; 0x80015a <_bme280_calib+0x5>
     1cc:	53 01       	movw	r10, r6
     1ce:	42 01       	movw	r8, r4
     1d0:	82 1a       	sub	r8, r18
     1d2:	93 0a       	sbc	r9, r19
     1d4:	a1 08       	sbc	r10, r1
     1d6:	b1 08       	sbc	r11, r1
     1d8:	a5 01       	movw	r20, r10
     1da:	94 01       	movw	r18, r8
     1dc:	53 01       	movw	r10, r6
     1de:	42 01       	movw	r8, r4
     1e0:	86 1a       	sub	r8, r22
     1e2:	97 0a       	sbc	r9, r23
     1e4:	a1 08       	sbc	r10, r1
     1e6:	b1 08       	sbc	r11, r1
     1e8:	c5 01       	movw	r24, r10
     1ea:	b4 01       	movw	r22, r8
     1ec:	0e 94 17 0a 	call	0x142e	; 0x142e <__mulsi3>
     1f0:	9b 01       	movw	r18, r22
     1f2:	ac 01       	movw	r20, r24
     1f4:	9c e0       	ldi	r25, 0x0C	; 12
     1f6:	56 95       	lsr	r21
     1f8:	47 95       	ror	r20
     1fa:	37 95       	ror	r19
     1fc:	27 95       	ror	r18
     1fe:	9a 95       	dec	r25
     200:	d1 f7       	brne	.-12     	; 0x1f6 <bme280_readTemperature+0x92>
     202:	d8 01       	movw	r26, r16
     204:	0e 94 46 0a 	call	0x148c	; 0x148c <__mulshisi3>
     208:	4b 01       	movw	r8, r22
     20a:	5c 01       	movw	r10, r24
     20c:	2e e0       	ldi	r18, 0x0E	; 14
     20e:	b6 94       	lsr	r11
     210:	a7 94       	ror	r10
     212:	97 94       	ror	r9
     214:	87 94       	ror	r8
     216:	2a 95       	dec	r18
     218:	d1 f7       	brne	.-12     	; 0x20e <bme280_readTemperature+0xaa>
     21a:	b7 01       	movw	r22, r14
     21c:	a6 01       	movw	r20, r12
     21e:	37 e0       	ldi	r19, 0x07	; 7
     220:	76 95       	lsr	r23
     222:	67 95       	ror	r22
     224:	57 95       	ror	r21
     226:	47 95       	ror	r20
     228:	3a 95       	dec	r19
     22a:	d1 f7       	brne	.-12     	; 0x220 <bme280_readTemperature+0xbc>
     22c:	ce 01       	movw	r24, r28
     22e:	a0 e0       	ldi	r26, 0x00	; 0
     230:	b0 e0       	ldi	r27, 0x00	; 0
     232:	88 0f       	add	r24, r24
     234:	99 1f       	adc	r25, r25
     236:	aa 1f       	adc	r26, r26
     238:	bb 1f       	adc	r27, r27
     23a:	9a 01       	movw	r18, r20
     23c:	ab 01       	movw	r20, r22
     23e:	28 1b       	sub	r18, r24
     240:	39 0b       	sbc	r19, r25
     242:	4a 0b       	sbc	r20, r26
     244:	5b 0b       	sbc	r21, r27
     246:	df 01       	movw	r26, r30
     248:	0e 94 46 0a 	call	0x148c	; 0x148c <__mulshisi3>
     24c:	dc 01       	movw	r26, r24
     24e:	cb 01       	movw	r24, r22
     250:	db e0       	ldi	r29, 0x0B	; 11
     252:	b6 95       	lsr	r27
     254:	a7 95       	ror	r26
     256:	97 95       	ror	r25
     258:	87 95       	ror	r24
     25a:	da 95       	dec	r29
     25c:	d1 f7       	brne	.-12     	; 0x252 <bme280_readTemperature+0xee>
     25e:	88 0e       	add	r8, r24
     260:	99 1e       	adc	r9, r25
     262:	aa 1e       	adc	r10, r26
     264:	bb 1e       	adc	r11, r27
     266:	80 92 76 01 	sts	0x0176, r8	; 0x800176 <t_fine>
     26a:	90 92 77 01 	sts	0x0177, r9	; 0x800177 <t_fine+0x1>
     26e:	a0 92 78 01 	sts	0x0178, r10	; 0x800178 <t_fine+0x2>
     272:	b0 92 79 01 	sts	0x0179, r11	; 0x800179 <t_fine+0x3>
     276:	20 91 76 01 	lds	r18, 0x0176	; 0x800176 <t_fine>
     27a:	30 91 77 01 	lds	r19, 0x0177	; 0x800177 <t_fine+0x1>
     27e:	40 91 78 01 	lds	r20, 0x0178	; 0x800178 <t_fine+0x2>
     282:	50 91 79 01 	lds	r21, 0x0179	; 0x800179 <t_fine+0x3>
     286:	a5 e0       	ldi	r26, 0x05	; 5
     288:	b0 e0       	ldi	r27, 0x00	; 0
     28a:	0e 94 3b 0a 	call	0x1476	; 0x1476 <__muluhisi3>
     28e:	dc 01       	movw	r26, r24
     290:	cb 01       	movw	r24, r22
     292:	80 58       	subi	r24, 0x80	; 128
     294:	9f 4f       	sbci	r25, 0xFF	; 255
     296:	af 4f       	sbci	r26, 0xFF	; 255
     298:	bf 4f       	sbci	r27, 0xFF	; 255
     29a:	69 2f       	mov	r22, r25
     29c:	7a 2f       	mov	r23, r26
     29e:	8b 2f       	mov	r24, r27
     2a0:	99 27       	eor	r25, r25
     2a2:	0e 94 81 08 	call	0x1102	; 0x1102 <__floatunsisf>
     2a6:	20 e0       	ldi	r18, 0x00	; 0
     2a8:	30 e0       	ldi	r19, 0x00	; 0
     2aa:	48 ec       	ldi	r20, 0xC8	; 200
     2ac:	52 e4       	ldi	r21, 0x42	; 66
     2ae:	0e 94 d3 07 	call	0xfa6	; 0xfa6 <__divsf3>
     2b2:	04 c0       	rjmp	.+8      	; 0x2bc <bme280_readTemperature+0x158>
     2b4:	60 e0       	ldi	r22, 0x00	; 0
     2b6:	70 e0       	ldi	r23, 0x00	; 0
     2b8:	80 ec       	ldi	r24, 0xC0	; 192
     2ba:	9f e7       	ldi	r25, 0x7F	; 127
     2bc:	df 91       	pop	r29
     2be:	cf 91       	pop	r28
     2c0:	1f 91       	pop	r17
     2c2:	0f 91       	pop	r16
     2c4:	ff 90       	pop	r15
     2c6:	ef 90       	pop	r14
     2c8:	df 90       	pop	r13
     2ca:	cf 90       	pop	r12
     2cc:	bf 90       	pop	r11
     2ce:	af 90       	pop	r10
     2d0:	9f 90       	pop	r9
     2d2:	8f 90       	pop	r8
     2d4:	7f 90       	pop	r7
     2d6:	6f 90       	pop	r6
     2d8:	5f 90       	pop	r5
     2da:	4f 90       	pop	r4
     2dc:	08 95       	ret

000002de <bme280_readPressure>:
     2de:	2f 92       	push	r2
     2e0:	3f 92       	push	r3
     2e2:	4f 92       	push	r4
     2e4:	5f 92       	push	r5
     2e6:	6f 92       	push	r6
     2e8:	7f 92       	push	r7
     2ea:	8f 92       	push	r8
     2ec:	9f 92       	push	r9
     2ee:	af 92       	push	r10
     2f0:	bf 92       	push	r11
     2f2:	cf 92       	push	r12
     2f4:	df 92       	push	r13
     2f6:	ef 92       	push	r14
     2f8:	ff 92       	push	r15
     2fa:	0f 93       	push	r16
     2fc:	1f 93       	push	r17
     2fe:	cf 93       	push	r28
     300:	df 93       	push	r29
     302:	cd b7       	in	r28, 0x3d	; 61
     304:	de b7       	in	r29, 0x3e	; 62
     306:	ac 97       	sbiw	r28, 0x2c	; 44
     308:	0f b6       	in	r0, 0x3f	; 63
     30a:	f8 94       	cli
     30c:	de bf       	out	0x3e, r29	; 62
     30e:	0f be       	out	0x3f, r0	; 63
     310:	cd bf       	out	0x3d, r28	; 61
     312:	0e 94 b2 00 	call	0x164	; 0x164 <bme280_readTemperature>
     316:	87 ef       	ldi	r24, 0xF7	; 247
     318:	0e 94 85 00 	call	0x10a	; 0x10a <bme280_read3Byte>
     31c:	6a 8b       	std	Y+18, r22	; 0x12
     31e:	7b 8b       	std	Y+19, r23	; 0x13
     320:	8c 8b       	std	Y+20, r24	; 0x14
     322:	9d 8b       	std	Y+21, r25	; 0x15
     324:	61 15       	cp	r22, r1
     326:	71 05       	cpc	r23, r1
     328:	80 48       	sbci	r24, 0x80	; 128
     32a:	91 05       	cpc	r25, r1
     32c:	09 f4       	brne	.+2      	; 0x330 <bme280_readPressure+0x52>
     32e:	db c1       	rjmp	.+950    	; 0x6e6 <__EEPROM_REGION_LENGTH__+0x2e6>
     330:	80 91 76 01 	lds	r24, 0x0176	; 0x800176 <t_fine>
     334:	90 91 77 01 	lds	r25, 0x0177	; 0x800177 <t_fine+0x1>
     338:	a0 91 78 01 	lds	r26, 0x0178	; 0x800178 <t_fine+0x2>
     33c:	b0 91 79 01 	lds	r27, 0x0179	; 0x800179 <t_fine+0x3>
     340:	5c 01       	movw	r10, r24
     342:	6d 01       	movw	r12, r26
     344:	e1 2c       	mov	r14, r1
     346:	f1 2c       	mov	r15, r1
     348:	87 01       	movw	r16, r14
     34a:	89 83       	std	Y+1, r24	; 0x01
     34c:	ba 82       	std	Y+2, r11	; 0x02
     34e:	cb 82       	std	Y+3, r12	; 0x03
     350:	dc 82       	std	Y+4, r13	; 0x04
     352:	ed 82       	std	Y+5, r14	; 0x05
     354:	fe 82       	std	Y+6, r15	; 0x06
     356:	0f 83       	std	Y+7, r16	; 0x07
     358:	18 87       	std	Y+8, r17	; 0x08
     35a:	9c 01       	movw	r18, r24
     35c:	a6 01       	movw	r20, r12
     35e:	60 e0       	ldi	r22, 0x00	; 0
     360:	70 e0       	ldi	r23, 0x00	; 0
     362:	80 e0       	ldi	r24, 0x00	; 0
     364:	90 e0       	ldi	r25, 0x00	; 0
     366:	34 5f       	subi	r19, 0xF4	; 244
     368:	41 40       	sbci	r20, 0x01	; 1
     36a:	51 09       	sbc	r21, r1
     36c:	61 09       	sbc	r22, r1
     36e:	71 09       	sbc	r23, r1
     370:	81 09       	sbc	r24, r1
     372:	91 09       	sbc	r25, r1
     374:	2b 87       	std	Y+11, r18	; 0x0b
     376:	3d 87       	std	Y+13, r19	; 0x0d
     378:	3a 01       	movw	r6, r20
     37a:	4b 01       	movw	r8, r22
     37c:	8c a7       	std	Y+44, r24	; 0x2c
     37e:	9c a3       	std	Y+36, r25	; 0x24
     380:	59 01       	movw	r10, r18
     382:	6a 01       	movw	r12, r20
     384:	7b 01       	movw	r14, r22
     386:	8c 01       	movw	r16, r24
     388:	0e 94 4e 0a 	call	0x149c	; 0x149c <__muldi3>
     38c:	32 2e       	mov	r3, r18
     38e:	23 2e       	mov	r2, r19
     390:	4b 8f       	std	Y+27, r20	; 0x1b
     392:	5c 8f       	std	Y+28, r21	; 0x1c
     394:	6d 8f       	std	Y+29, r22	; 0x1d
     396:	7e 8f       	std	Y+30, r23	; 0x1e
     398:	8f 8f       	std	Y+31, r24	; 0x1f
     39a:	98 a3       	std	Y+32, r25	; 0x20
     39c:	c0 90 65 01 	lds	r12, 0x0165	; 0x800165 <_bme280_calib+0x10>
     3a0:	d0 90 66 01 	lds	r13, 0x0166	; 0x800166 <_bme280_calib+0x11>
     3a4:	da 86       	std	Y+10, r13	; 0x0a
     3a6:	c9 86       	std	Y+9, r12	; 0x09
     3a8:	e0 90 63 01 	lds	r14, 0x0163	; 0x800163 <_bme280_calib+0xe>
     3ac:	f0 90 64 01 	lds	r15, 0x0164	; 0x800164 <_bme280_calib+0xf>
     3b0:	ff 86       	std	Y+15, r15	; 0x0f
     3b2:	ee 86       	std	Y+14, r14	; 0x0e
     3b4:	00 91 61 01 	lds	r16, 0x0161	; 0x800161 <_bme280_calib+0xc>
     3b8:	10 91 62 01 	lds	r17, 0x0162	; 0x800162 <_bme280_calib+0xd>
     3bc:	19 8b       	std	Y+17, r17	; 0x11
     3be:	08 8b       	std	Y+16, r16	; 0x10
     3c0:	40 90 5f 01 	lds	r4, 0x015F	; 0x80015f <_bme280_calib+0xa>
     3c4:	50 90 60 01 	lds	r5, 0x0160	; 0x800160 <_bme280_calib+0xb>
     3c8:	40 91 5d 01 	lds	r20, 0x015D	; 0x80015d <_bme280_calib+0x8>
     3cc:	50 91 5e 01 	lds	r21, 0x015E	; 0x80015e <_bme280_calib+0x9>
     3d0:	95 2f       	mov	r25, r21
     3d2:	99 0f       	add	r25, r25
     3d4:	99 0b       	sbc	r25, r25
     3d6:	63 01       	movw	r12, r6
     3d8:	74 01       	movw	r14, r8
     3da:	0c a5       	ldd	r16, Y+44	; 0x2c
     3dc:	1c a1       	ldd	r17, Y+36	; 0x24
     3de:	9a 01       	movw	r18, r20
     3e0:	49 2f       	mov	r20, r25
     3e2:	59 2f       	mov	r21, r25
     3e4:	69 2f       	mov	r22, r25
     3e6:	79 2f       	mov	r23, r25
     3e8:	89 2f       	mov	r24, r25
     3ea:	0e 94 4e 0a 	call	0x149c	; 0x149c <__muldi3>
     3ee:	0c e0       	ldi	r16, 0x0C	; 12
     3f0:	0e 94 7e 0b 	call	0x16fc	; 0x16fc <__ashldi3>
     3f4:	2e 8b       	std	Y+22, r18	; 0x16
     3f6:	3f 8b       	std	Y+23, r19	; 0x17
     3f8:	48 8f       	std	Y+24, r20	; 0x18
     3fa:	59 8f       	std	Y+25, r21	; 0x19
     3fc:	6a 8f       	std	Y+26, r22	; 0x1a
     3fe:	79 a3       	std	Y+33, r23	; 0x21
     400:	8a a3       	std	Y+34, r24	; 0x22
     402:	9b a3       	std	Y+35, r25	; 0x23
     404:	20 91 5b 01 	lds	r18, 0x015B	; 0x80015b <_bme280_calib+0x6>
     408:	30 91 5c 01 	lds	r19, 0x015C	; 0x80015c <_bme280_calib+0x7>
     40c:	3a 83       	std	Y+2, r19	; 0x02
     40e:	29 83       	std	Y+1, r18	; 0x01
     410:	95 2d       	mov	r25, r5
     412:	99 0f       	add	r25, r25
     414:	99 0b       	sbc	r25, r25
     416:	a3 2c       	mov	r10, r3
     418:	b2 2c       	mov	r11, r2
     41a:	cb 8c       	ldd	r12, Y+27	; 0x1b
     41c:	dc 8c       	ldd	r13, Y+28	; 0x1c
     41e:	ed 8c       	ldd	r14, Y+29	; 0x1d
     420:	fe 8c       	ldd	r15, Y+30	; 0x1e
     422:	0f 8d       	ldd	r16, Y+31	; 0x1f
     424:	18 a1       	ldd	r17, Y+32	; 0x20
     426:	92 01       	movw	r18, r4
     428:	49 2f       	mov	r20, r25
     42a:	59 2f       	mov	r21, r25
     42c:	69 2f       	mov	r22, r25
     42e:	79 2f       	mov	r23, r25
     430:	89 2f       	mov	r24, r25
     432:	0e 94 4e 0a 	call	0x149c	; 0x149c <__muldi3>
     436:	08 e0       	ldi	r16, 0x08	; 8
     438:	0e 94 97 0b 	call	0x172e	; 0x172e <__ashrdi3>
     43c:	ae 88       	ldd	r10, Y+22	; 0x16
     43e:	bf 88       	ldd	r11, Y+23	; 0x17
     440:	c8 8c       	ldd	r12, Y+24	; 0x18
     442:	d9 8c       	ldd	r13, Y+25	; 0x19
     444:	ea 8c       	ldd	r14, Y+26	; 0x1a
     446:	f9 a0       	ldd	r15, Y+33	; 0x21
     448:	0a a1       	ldd	r16, Y+34	; 0x22
     44a:	1b a1       	ldd	r17, Y+35	; 0x23
     44c:	0e 94 b5 0b 	call	0x176a	; 0x176a <__adddi3>
     450:	70 58       	subi	r23, 0x80	; 128
     452:	8f 4f       	sbci	r24, 0xFF	; 255
     454:	9f 4f       	sbci	r25, 0xFF	; 255
     456:	c9 80       	ldd	r12, Y+1	; 0x01
     458:	da 80       	ldd	r13, Y+2	; 0x02
     45a:	56 01       	movw	r10, r12
     45c:	c1 2c       	mov	r12, r1
     45e:	d1 2c       	mov	r13, r1
     460:	e1 2c       	mov	r14, r1
     462:	f1 2c       	mov	r15, r1
     464:	87 01       	movw	r16, r14
     466:	a9 82       	std	Y+1, r10	; 0x01
     468:	ba 82       	std	Y+2, r11	; 0x02
     46a:	cb 82       	std	Y+3, r12	; 0x03
     46c:	dc 82       	std	Y+4, r13	; 0x04
     46e:	ed 82       	std	Y+5, r14	; 0x05
     470:	fe 82       	std	Y+6, r15	; 0x06
     472:	0f 83       	std	Y+7, r16	; 0x07
     474:	18 87       	std	Y+8, r17	; 0x08
     476:	c1 2c       	mov	r12, r1
     478:	d1 2c       	mov	r13, r1
     47a:	e1 2c       	mov	r14, r1
     47c:	f1 2c       	mov	r15, r1
     47e:	00 e0       	ldi	r16, 0x00	; 0
     480:	10 e0       	ldi	r17, 0x00	; 0
     482:	0e 94 4e 0a 	call	0x149c	; 0x149c <__muldi3>
     486:	01 e2       	ldi	r16, 0x21	; 33
     488:	0e 94 97 0b 	call	0x172e	; 0x172e <__ashrdi3>
     48c:	29 83       	std	Y+1, r18	; 0x01
     48e:	3e 8b       	std	Y+22, r19	; 0x16
     490:	4f 8b       	std	Y+23, r20	; 0x17
     492:	58 8f       	std	Y+24, r21	; 0x18
     494:	69 8f       	std	Y+25, r22	; 0x19
     496:	47 2e       	mov	r4, r23
     498:	58 2e       	mov	r5, r24
     49a:	9a 8f       	std	Y+26, r25	; 0x1a
     49c:	a0 e0       	ldi	r26, 0x00	; 0
     49e:	0e 94 c7 0b 	call	0x178e	; 0x178e <__cmpdi2_s8>
     4a2:	09 f4       	brne	.+2      	; 0x4a6 <__EEPROM_REGION_LENGTH__+0xa6>
     4a4:	25 c1       	rjmp	.+586    	; 0x6f0 <__EEPROM_REGION_LENGTH__+0x2f0>
     4a6:	9a 85       	ldd	r25, Y+10	; 0x0a
     4a8:	99 0f       	add	r25, r25
     4aa:	99 0b       	sbc	r25, r25
     4ac:	a3 2c       	mov	r10, r3
     4ae:	b2 2c       	mov	r11, r2
     4b0:	cb 8c       	ldd	r12, Y+27	; 0x1b
     4b2:	dc 8c       	ldd	r13, Y+28	; 0x1c
     4b4:	ed 8c       	ldd	r14, Y+29	; 0x1d
     4b6:	fe 8c       	ldd	r15, Y+30	; 0x1e
     4b8:	0f 8d       	ldd	r16, Y+31	; 0x1f
     4ba:	18 a1       	ldd	r17, Y+32	; 0x20
     4bc:	29 85       	ldd	r18, Y+9	; 0x09
     4be:	3a 85       	ldd	r19, Y+10	; 0x0a
     4c0:	49 2f       	mov	r20, r25
     4c2:	59 2f       	mov	r21, r25
     4c4:	69 2f       	mov	r22, r25
     4c6:	79 2f       	mov	r23, r25
     4c8:	89 2f       	mov	r24, r25
     4ca:	0e 94 4e 0a 	call	0x149c	; 0x149c <__muldi3>
     4ce:	19 01       	movw	r2, r18
     4d0:	49 87       	std	Y+9, r20	; 0x09
     4d2:	5b 8f       	std	Y+27, r21	; 0x1b
     4d4:	6c 8f       	std	Y+28, r22	; 0x1c
     4d6:	7d 8f       	std	Y+29, r23	; 0x1d
     4d8:	8e 8f       	std	Y+30, r24	; 0x1e
     4da:	9f 8f       	std	Y+31, r25	; 0x1f
     4dc:	9f 85       	ldd	r25, Y+15	; 0x0f
     4de:	99 0f       	add	r25, r25
     4e0:	99 0b       	sbc	r25, r25
     4e2:	ab 84       	ldd	r10, Y+11	; 0x0b
     4e4:	bd 84       	ldd	r11, Y+13	; 0x0d
     4e6:	63 01       	movw	r12, r6
     4e8:	74 01       	movw	r14, r8
     4ea:	0c a5       	ldd	r16, Y+44	; 0x2c
     4ec:	1c a1       	ldd	r17, Y+36	; 0x24
     4ee:	2e 85       	ldd	r18, Y+14	; 0x0e
     4f0:	3f 85       	ldd	r19, Y+15	; 0x0f
     4f2:	49 2f       	mov	r20, r25
     4f4:	59 2f       	mov	r21, r25
     4f6:	69 2f       	mov	r22, r25
     4f8:	79 2f       	mov	r23, r25
     4fa:	89 2f       	mov	r24, r25
     4fc:	0e 94 4e 0a 	call	0x149c	; 0x149c <__muldi3>
     500:	01 e1       	ldi	r16, 0x11	; 17
     502:	0e 94 7e 0b 	call	0x16fc	; 0x16fc <__ashldi3>
     506:	51 01       	movw	r10, r2
     508:	c9 84       	ldd	r12, Y+9	; 0x09
     50a:	db 8c       	ldd	r13, Y+27	; 0x1b
     50c:	ec 8c       	ldd	r14, Y+28	; 0x1c
     50e:	fd 8c       	ldd	r15, Y+29	; 0x1d
     510:	0e 8d       	ldd	r16, Y+30	; 0x1e
     512:	1f 8d       	ldd	r17, Y+31	; 0x1f
     514:	0e 94 b5 0b 	call	0x176a	; 0x176a <__adddi3>
     518:	59 01       	movw	r10, r18
     51a:	6a 01       	movw	r12, r20
     51c:	7b 01       	movw	r14, r22
     51e:	68 2e       	mov	r6, r24
     520:	39 2e       	mov	r3, r25
     522:	4a 89       	ldd	r20, Y+18	; 0x12
     524:	5b 89       	ldd	r21, Y+19	; 0x13
     526:	6c 89       	ldd	r22, Y+20	; 0x14
     528:	7d 89       	ldd	r23, Y+21	; 0x15
     52a:	84 e0       	ldi	r24, 0x04	; 4
     52c:	75 95       	asr	r23
     52e:	67 95       	ror	r22
     530:	57 95       	ror	r21
     532:	47 95       	ror	r20
     534:	8a 95       	dec	r24
     536:	d1 f7       	brne	.-12     	; 0x52c <__EEPROM_REGION_LENGTH__+0x12c>
     538:	80 e0       	ldi	r24, 0x00	; 0
     53a:	90 e0       	ldi	r25, 0x00	; 0
     53c:	a0 e1       	ldi	r26, 0x10	; 16
     53e:	b0 e0       	ldi	r27, 0x00	; 0
     540:	84 1b       	sub	r24, r20
     542:	95 0b       	sbc	r25, r21
     544:	a6 0b       	sbc	r26, r22
     546:	b7 0b       	sbc	r27, r23
     548:	8c 01       	movw	r16, r24
     54a:	9d 01       	movw	r18, r26
     54c:	40 e0       	ldi	r20, 0x00	; 0
     54e:	50 e0       	ldi	r21, 0x00	; 0
     550:	ba 01       	movw	r22, r20
     552:	8c a3       	std	Y+36, r24	; 0x24
     554:	1d a3       	std	Y+37, r17	; 0x25
     556:	2e a3       	std	Y+38, r18	; 0x26
     558:	3f a3       	std	Y+39, r19	; 0x27
     55a:	48 a7       	std	Y+40, r20	; 0x28
     55c:	59 a7       	std	Y+41, r21	; 0x29
     55e:	6a a7       	std	Y+42, r22	; 0x2a
     560:	7b a7       	std	Y+43, r23	; 0x2b
     562:	9c 01       	movw	r18, r24
     564:	4e a1       	ldd	r20, Y+38	; 0x26
     566:	5f a1       	ldd	r21, Y+39	; 0x27
     568:	60 e0       	ldi	r22, 0x00	; 0
     56a:	70 e0       	ldi	r23, 0x00	; 0
     56c:	80 e0       	ldi	r24, 0x00	; 0
     56e:	90 e0       	ldi	r25, 0x00	; 0
     570:	0f e1       	ldi	r16, 0x1F	; 31
     572:	0e 94 7e 0b 	call	0x16fc	; 0x16fc <__ashldi3>
     576:	72 2e       	mov	r7, r18
     578:	83 2e       	mov	r8, r19
     57a:	94 2e       	mov	r9, r20
     57c:	25 2e       	mov	r2, r21
     57e:	b6 2f       	mov	r27, r22
     580:	a7 2f       	mov	r26, r23
     582:	f8 2f       	mov	r31, r24
     584:	e9 2f       	mov	r30, r25
     586:	99 89       	ldd	r25, Y+17	; 0x11
     588:	99 0f       	add	r25, r25
     58a:	99 0b       	sbc	r25, r25
     58c:	28 89       	ldd	r18, Y+16	; 0x10
     58e:	39 89       	ldd	r19, Y+17	; 0x11
     590:	49 2f       	mov	r20, r25
     592:	59 2f       	mov	r21, r25
     594:	69 2f       	mov	r22, r25
     596:	79 2f       	mov	r23, r25
     598:	89 2f       	mov	r24, r25
     59a:	03 e2       	ldi	r16, 0x23	; 35
     59c:	0e 94 7e 0b 	call	0x16fc	; 0x16fc <__ashldi3>
     5a0:	06 2d       	mov	r16, r6
     5a2:	13 2d       	mov	r17, r3
     5a4:	0e 94 b5 0b 	call	0x176a	; 0x176a <__adddi3>
     5a8:	59 01       	movw	r10, r18
     5aa:	6a 01       	movw	r12, r20
     5ac:	7b 01       	movw	r14, r22
     5ae:	8c 01       	movw	r16, r24
     5b0:	27 2d       	mov	r18, r7
     5b2:	38 2d       	mov	r19, r8
     5b4:	49 2d       	mov	r20, r9
     5b6:	52 2d       	mov	r21, r2
     5b8:	6b 2f       	mov	r22, r27
     5ba:	7a 2f       	mov	r23, r26
     5bc:	8f 2f       	mov	r24, r31
     5be:	9e 2f       	mov	r25, r30
     5c0:	0e 94 be 0b 	call	0x177c	; 0x177c <__subdi3>
     5c4:	e5 e3       	ldi	r30, 0x35	; 53
     5c6:	ae 2e       	mov	r10, r30
     5c8:	fc e0       	ldi	r31, 0x0C	; 12
     5ca:	bf 2e       	mov	r11, r31
     5cc:	c1 2c       	mov	r12, r1
     5ce:	d1 2c       	mov	r13, r1
     5d0:	e1 2c       	mov	r14, r1
     5d2:	f1 2c       	mov	r15, r1
     5d4:	00 e0       	ldi	r16, 0x00	; 0
     5d6:	10 e0       	ldi	r17, 0x00	; 0
     5d8:	0e 94 4e 0a 	call	0x149c	; 0x149c <__muldi3>
     5dc:	a9 80       	ldd	r10, Y+1	; 0x01
     5de:	be 88       	ldd	r11, Y+22	; 0x16
     5e0:	cf 88       	ldd	r12, Y+23	; 0x17
     5e2:	d8 8c       	ldd	r13, Y+24	; 0x18
     5e4:	e9 8c       	ldd	r14, Y+25	; 0x19
     5e6:	f4 2c       	mov	r15, r4
     5e8:	05 2d       	mov	r16, r5
     5ea:	1a 8d       	ldd	r17, Y+26	; 0x1a
     5ec:	0e 94 a9 0a 	call	0x1552	; 0x1552 <__divdi3>
     5f0:	2f 8b       	std	Y+23, r18	; 0x17
     5f2:	3e 8b       	std	Y+22, r19	; 0x16
     5f4:	4d 87       	std	Y+13, r20	; 0x0d
     5f6:	59 87       	std	Y+9, r21	; 0x09
     5f8:	6e 87       	std	Y+14, r22	; 0x0e
     5fa:	78 8b       	std	Y+16, r23	; 0x10
     5fc:	8a 8b       	std	Y+18, r24	; 0x12
     5fe:	99 83       	std	Y+1, r25	; 0x01
     600:	e0 91 6b 01 	lds	r30, 0x016B	; 0x80016b <_bme280_calib+0x16>
     604:	f0 91 6c 01 	lds	r31, 0x016C	; 0x80016c <_bme280_calib+0x17>
     608:	0d e0       	ldi	r16, 0x0D	; 13
     60a:	0e 94 97 0b 	call	0x172e	; 0x172e <__ashrdi3>
     60e:	92 2e       	mov	r9, r18
     610:	83 2e       	mov	r8, r19
     612:	29 2e       	mov	r2, r25
     614:	20 91 69 01 	lds	r18, 0x0169	; 0x800169 <_bme280_calib+0x14>
     618:	30 91 6a 01 	lds	r19, 0x016A	; 0x80016a <_bme280_calib+0x15>
     61c:	3c 87       	std	Y+12, r19	; 0x0c
     61e:	2b 87       	std	Y+11, r18	; 0x0b
     620:	9f 2f       	mov	r25, r31
     622:	99 0f       	add	r25, r25
     624:	99 0b       	sbc	r25, r25
     626:	a9 2c       	mov	r10, r9
     628:	b8 2c       	mov	r11, r8
     62a:	c4 2e       	mov	r12, r20
     62c:	d5 2e       	mov	r13, r21
     62e:	e6 2e       	mov	r14, r22
     630:	f7 2e       	mov	r15, r23
     632:	08 2f       	mov	r16, r24
     634:	12 2d       	mov	r17, r2
     636:	9f 01       	movw	r18, r30
     638:	49 2f       	mov	r20, r25
     63a:	59 2f       	mov	r21, r25
     63c:	69 2f       	mov	r22, r25
     63e:	79 2f       	mov	r23, r25
     640:	89 2f       	mov	r24, r25
     642:	0e 94 4e 0a 	call	0x149c	; 0x149c <__muldi3>
     646:	0e 94 4e 0a 	call	0x149c	; 0x149c <__muldi3>
     64a:	09 e1       	ldi	r16, 0x19	; 25
     64c:	0e 94 97 0b 	call	0x172e	; 0x172e <__ashrdi3>
     650:	af 88       	ldd	r10, Y+23	; 0x17
     652:	be 88       	ldd	r11, Y+22	; 0x16
     654:	cd 84       	ldd	r12, Y+13	; 0x0d
     656:	d9 84       	ldd	r13, Y+9	; 0x09
     658:	ee 84       	ldd	r14, Y+14	; 0x0e
     65a:	f8 88       	ldd	r15, Y+16	; 0x10
     65c:	0a 89       	ldd	r16, Y+18	; 0x12
     65e:	19 81       	ldd	r17, Y+1	; 0x01
     660:	0e 94 b5 0b 	call	0x176a	; 0x176a <__adddi3>
     664:	19 01       	movw	r2, r18
     666:	2a 01       	movw	r4, r20
     668:	3b 01       	movw	r6, r22
     66a:	4c 01       	movw	r8, r24
     66c:	9c 85       	ldd	r25, Y+12	; 0x0c
     66e:	99 0f       	add	r25, r25
     670:	99 0b       	sbc	r25, r25
     672:	2b 85       	ldd	r18, Y+11	; 0x0b
     674:	3c 85       	ldd	r19, Y+12	; 0x0c
     676:	49 2f       	mov	r20, r25
     678:	59 2f       	mov	r21, r25
     67a:	69 2f       	mov	r22, r25
     67c:	79 2f       	mov	r23, r25
     67e:	89 2f       	mov	r24, r25
     680:	0e 94 4e 0a 	call	0x149c	; 0x149c <__muldi3>
     684:	03 e1       	ldi	r16, 0x13	; 19
     686:	0e 94 97 0b 	call	0x172e	; 0x172e <__ashrdi3>
     68a:	59 01       	movw	r10, r18
     68c:	6a 01       	movw	r12, r20
     68e:	7b 01       	movw	r14, r22
     690:	8c 01       	movw	r16, r24
     692:	91 01       	movw	r18, r2
     694:	a2 01       	movw	r20, r4
     696:	b3 01       	movw	r22, r6
     698:	c4 01       	movw	r24, r8
     69a:	0e 94 b5 0b 	call	0x176a	; 0x176a <__adddi3>
     69e:	08 e0       	ldi	r16, 0x08	; 8
     6a0:	0e 94 97 0b 	call	0x172e	; 0x172e <__ashrdi3>
     6a4:	59 01       	movw	r10, r18
     6a6:	6a 01       	movw	r12, r20
     6a8:	7b 01       	movw	r14, r22
     6aa:	e8 2f       	mov	r30, r24
     6ac:	19 2f       	mov	r17, r25
     6ae:	40 91 67 01 	lds	r20, 0x0167	; 0x800167 <_bme280_calib+0x12>
     6b2:	50 91 68 01 	lds	r21, 0x0168	; 0x800168 <_bme280_calib+0x13>
     6b6:	95 2f       	mov	r25, r21
     6b8:	99 0f       	add	r25, r25
     6ba:	99 0b       	sbc	r25, r25
     6bc:	9a 01       	movw	r18, r20
     6be:	49 2f       	mov	r20, r25
     6c0:	59 2f       	mov	r21, r25
     6c2:	69 2f       	mov	r22, r25
     6c4:	79 2f       	mov	r23, r25
     6c6:	89 2f       	mov	r24, r25
     6c8:	04 e0       	ldi	r16, 0x04	; 4
     6ca:	0e 94 7e 0b 	call	0x16fc	; 0x16fc <__ashldi3>
     6ce:	0e 2f       	mov	r16, r30
     6d0:	0e 94 b5 0b 	call	0x176a	; 0x176a <__adddi3>
     6d4:	0e 94 7b 08 	call	0x10f6	; 0x10f6 <__floatdisf>
     6d8:	20 e0       	ldi	r18, 0x00	; 0
     6da:	30 e0       	ldi	r19, 0x00	; 0
     6dc:	40 e8       	ldi	r20, 0x80	; 128
     6de:	5b e3       	ldi	r21, 0x3B	; 59
     6e0:	0e 94 5d 09 	call	0x12ba	; 0x12ba <__mulsf3>
     6e4:	08 c0       	rjmp	.+16     	; 0x6f6 <__EEPROM_REGION_LENGTH__+0x2f6>
     6e6:	60 e0       	ldi	r22, 0x00	; 0
     6e8:	70 e0       	ldi	r23, 0x00	; 0
     6ea:	80 ec       	ldi	r24, 0xC0	; 192
     6ec:	9f e7       	ldi	r25, 0x7F	; 127
     6ee:	03 c0       	rjmp	.+6      	; 0x6f6 <__EEPROM_REGION_LENGTH__+0x2f6>
     6f0:	60 e0       	ldi	r22, 0x00	; 0
     6f2:	70 e0       	ldi	r23, 0x00	; 0
     6f4:	cb 01       	movw	r24, r22
     6f6:	ac 96       	adiw	r28, 0x2c	; 44
     6f8:	0f b6       	in	r0, 0x3f	; 63
     6fa:	f8 94       	cli
     6fc:	de bf       	out	0x3e, r29	; 62
     6fe:	0f be       	out	0x3f, r0	; 63
     700:	cd bf       	out	0x3d, r28	; 61
     702:	df 91       	pop	r29
     704:	cf 91       	pop	r28
     706:	1f 91       	pop	r17
     708:	0f 91       	pop	r16
     70a:	ff 90       	pop	r15
     70c:	ef 90       	pop	r14
     70e:	df 90       	pop	r13
     710:	cf 90       	pop	r12
     712:	bf 90       	pop	r11
     714:	af 90       	pop	r10
     716:	9f 90       	pop	r9
     718:	8f 90       	pop	r8
     71a:	7f 90       	pop	r7
     71c:	6f 90       	pop	r6
     71e:	5f 90       	pop	r5
     720:	4f 90       	pop	r4
     722:	3f 90       	pop	r3
     724:	2f 90       	pop	r2
     726:	08 95       	ret

00000728 <read16_LE>:
     728:	0e 94 68 00 	call	0xd0	; 0xd0 <bme280_read2Byte>
     72c:	98 27       	eor	r25, r24
     72e:	89 27       	eor	r24, r25
     730:	98 27       	eor	r25, r24
     732:	08 95       	ret

00000734 <bme280_readCoefficients>:
     734:	1f 93       	push	r17
     736:	cf 93       	push	r28
     738:	df 93       	push	r29
     73a:	88 e8       	ldi	r24, 0x88	; 136
     73c:	0e 94 94 03 	call	0x728	; 0x728 <read16_LE>
     740:	c5 e5       	ldi	r28, 0x55	; 85
     742:	d1 e0       	ldi	r29, 0x01	; 1
     744:	99 83       	std	Y+1, r25	; 0x01
     746:	88 83       	st	Y, r24
     748:	8a e8       	ldi	r24, 0x8A	; 138
     74a:	0e 94 94 03 	call	0x728	; 0x728 <read16_LE>
     74e:	9b 83       	std	Y+3, r25	; 0x03
     750:	8a 83       	std	Y+2, r24	; 0x02
     752:	8c e8       	ldi	r24, 0x8C	; 140
     754:	0e 94 94 03 	call	0x728	; 0x728 <read16_LE>
     758:	9d 83       	std	Y+5, r25	; 0x05
     75a:	8c 83       	std	Y+4, r24	; 0x04
     75c:	8e e8       	ldi	r24, 0x8E	; 142
     75e:	0e 94 94 03 	call	0x728	; 0x728 <read16_LE>
     762:	9f 83       	std	Y+7, r25	; 0x07
     764:	8e 83       	std	Y+6, r24	; 0x06
     766:	80 e9       	ldi	r24, 0x90	; 144
     768:	0e 94 94 03 	call	0x728	; 0x728 <read16_LE>
     76c:	99 87       	std	Y+9, r25	; 0x09
     76e:	88 87       	std	Y+8, r24	; 0x08
     770:	82 e9       	ldi	r24, 0x92	; 146
     772:	0e 94 94 03 	call	0x728	; 0x728 <read16_LE>
     776:	9b 87       	std	Y+11, r25	; 0x0b
     778:	8a 87       	std	Y+10, r24	; 0x0a
     77a:	84 e9       	ldi	r24, 0x94	; 148
     77c:	0e 94 94 03 	call	0x728	; 0x728 <read16_LE>
     780:	9d 87       	std	Y+13, r25	; 0x0d
     782:	8c 87       	std	Y+12, r24	; 0x0c
     784:	86 e9       	ldi	r24, 0x96	; 150
     786:	0e 94 94 03 	call	0x728	; 0x728 <read16_LE>
     78a:	9f 87       	std	Y+15, r25	; 0x0f
     78c:	8e 87       	std	Y+14, r24	; 0x0e
     78e:	88 e9       	ldi	r24, 0x98	; 152
     790:	0e 94 94 03 	call	0x728	; 0x728 <read16_LE>
     794:	99 8b       	std	Y+17, r25	; 0x11
     796:	88 8b       	std	Y+16, r24	; 0x10
     798:	8a e9       	ldi	r24, 0x9A	; 154
     79a:	0e 94 94 03 	call	0x728	; 0x728 <read16_LE>
     79e:	9b 8b       	std	Y+19, r25	; 0x13
     7a0:	8a 8b       	std	Y+18, r24	; 0x12
     7a2:	8c e9       	ldi	r24, 0x9C	; 156
     7a4:	0e 94 94 03 	call	0x728	; 0x728 <read16_LE>
     7a8:	9d 8b       	std	Y+21, r25	; 0x15
     7aa:	8c 8b       	std	Y+20, r24	; 0x14
     7ac:	8e e9       	ldi	r24, 0x9E	; 158
     7ae:	0e 94 94 03 	call	0x728	; 0x728 <read16_LE>
     7b2:	9f 8b       	std	Y+23, r25	; 0x17
     7b4:	8e 8b       	std	Y+22, r24	; 0x16
     7b6:	81 ea       	ldi	r24, 0xA1	; 161
     7b8:	0e 94 53 00 	call	0xa6	; 0xa6 <bme280_read1Byte>
     7bc:	88 8f       	std	Y+24, r24	; 0x18
     7be:	81 ee       	ldi	r24, 0xE1	; 225
     7c0:	0e 94 94 03 	call	0x728	; 0x728 <read16_LE>
     7c4:	9a 8f       	std	Y+26, r25	; 0x1a
     7c6:	89 8f       	std	Y+25, r24	; 0x19
     7c8:	83 ee       	ldi	r24, 0xE3	; 227
     7ca:	0e 94 53 00 	call	0xa6	; 0xa6 <bme280_read1Byte>
     7ce:	8b 8f       	std	Y+27, r24	; 0x1b
     7d0:	84 ee       	ldi	r24, 0xE4	; 228
     7d2:	0e 94 53 00 	call	0xa6	; 0xa6 <bme280_read1Byte>
     7d6:	18 2f       	mov	r17, r24
     7d8:	85 ee       	ldi	r24, 0xE5	; 229
     7da:	0e 94 53 00 	call	0xa6	; 0xa6 <bme280_read1Byte>
     7de:	90 e1       	ldi	r25, 0x10	; 16
     7e0:	19 9f       	mul	r17, r25
     7e2:	90 01       	movw	r18, r0
     7e4:	11 24       	eor	r1, r1
     7e6:	8f 70       	andi	r24, 0x0F	; 15
     7e8:	28 2b       	or	r18, r24
     7ea:	3d 8f       	std	Y+29, r19	; 0x1d
     7ec:	2c 8f       	std	Y+28, r18	; 0x1c
     7ee:	86 ee       	ldi	r24, 0xE6	; 230
     7f0:	0e 94 53 00 	call	0xa6	; 0xa6 <bme280_read1Byte>
     7f4:	18 2f       	mov	r17, r24
     7f6:	85 ee       	ldi	r24, 0xE5	; 229
     7f8:	0e 94 53 00 	call	0xa6	; 0xa6 <bme280_read1Byte>
     7fc:	90 e1       	ldi	r25, 0x10	; 16
     7fe:	19 9f       	mul	r17, r25
     800:	90 01       	movw	r18, r0
     802:	11 24       	eor	r1, r1
     804:	82 95       	swap	r24
     806:	8f 70       	andi	r24, 0x0F	; 15
     808:	28 2b       	or	r18, r24
     80a:	3f 8f       	std	Y+31, r19	; 0x1f
     80c:	2e 8f       	std	Y+30, r18	; 0x1e
     80e:	87 ee       	ldi	r24, 0xE7	; 231
     810:	0e 94 53 00 	call	0xa6	; 0xa6 <bme280_read1Byte>
     814:	88 a3       	std	Y+32, r24	; 0x20
     816:	df 91       	pop	r29
     818:	cf 91       	pop	r28
     81a:	1f 91       	pop	r17
     81c:	08 95       	ret

0000081e <bme280_init>:
     81e:	80 ed       	ldi	r24, 0xD0	; 208
     820:	0e 94 53 00 	call	0xa6	; 0xa6 <bme280_read1Byte>
     824:	80 36       	cpi	r24, 0x60	; 96
     826:	99 f4       	brne	.+38     	; 0x84e <bme280_init+0x30>
     828:	8e ee       	ldi	r24, 0xEE	; 238
     82a:	0e 94 ed 04 	call	0x9da	; 0x9da <i2c_start>
     82e:	85 ef       	ldi	r24, 0xF5	; 245
     830:	0e 94 15 05 	call	0xa2a	; 0xa2a <i2c_byte>
     834:	8c e6       	ldi	r24, 0x6C	; 108
     836:	0e 94 15 05 	call	0xa2a	; 0xa2a <i2c_byte>
     83a:	84 ef       	ldi	r24, 0xF4	; 244
     83c:	0e 94 15 05 	call	0xa2a	; 0xa2a <i2c_byte>
     840:	87 eb       	ldi	r24, 0xB7	; 183
     842:	0e 94 15 05 	call	0xa2a	; 0xa2a <i2c_byte>
     846:	0e 94 11 05 	call	0xa22	; 0xa22 <i2c_stop>
     84a:	0c 94 9a 03 	jmp	0x734	; 0x734 <bme280_readCoefficients>
     84e:	08 95       	ret

00000850 <__vector_11>:
     850:	1f 92       	push	r1
     852:	0f 92       	push	r0
     854:	0f b6       	in	r0, 0x3f	; 63
     856:	0f 92       	push	r0
     858:	11 24       	eor	r1, r1
     85a:	8f 93       	push	r24
     85c:	9f 93       	push	r25
     85e:	95 b1       	in	r25, 0x05	; 5
     860:	84 e0       	ldi	r24, 0x04	; 4
     862:	98 27       	eor	r25, r24
     864:	95 b9       	out	0x05, r25	; 5
     866:	94 e0       	ldi	r25, 0x04	; 4
     868:	9a 95       	dec	r25
     86a:	f1 f7       	brne	.-4      	; 0x868 <__vector_11+0x18>
     86c:	95 b1       	in	r25, 0x05	; 5
     86e:	89 27       	eor	r24, r25
     870:	85 b9       	out	0x05, r24	; 5
     872:	9f 91       	pop	r25
     874:	8f 91       	pop	r24
     876:	0f 90       	pop	r0
     878:	0f be       	out	0x3f, r0	; 63
     87a:	0f 90       	pop	r0
     87c:	1f 90       	pop	r1
     87e:	18 95       	reti

00000880 <__vector_10>:
     880:	1f 92       	push	r1
     882:	0f 92       	push	r0
     884:	0f b6       	in	r0, 0x3f	; 63
     886:	0f 92       	push	r0
     888:	11 24       	eor	r1, r1
     88a:	cf 92       	push	r12
     88c:	df 92       	push	r13
     88e:	ef 92       	push	r14
     890:	ff 92       	push	r15
     892:	2f 93       	push	r18
     894:	3f 93       	push	r19
     896:	4f 93       	push	r20
     898:	5f 93       	push	r21
     89a:	6f 93       	push	r22
     89c:	7f 93       	push	r23
     89e:	8f 93       	push	r24
     8a0:	9f 93       	push	r25
     8a2:	af 93       	push	r26
     8a4:	bf 93       	push	r27
     8a6:	cf 93       	push	r28
     8a8:	df 93       	push	r29
     8aa:	ef 93       	push	r30
     8ac:	ff 93       	push	r31
     8ae:	80 91 81 00 	lds	r24, 0x0081	; 0x800081 <__TEXT_REGION_LENGTH__+0x7f8081>
     8b2:	86 ff       	sbrs	r24, 6
     8b4:	0e c0       	rjmp	.+28     	; 0x8d2 <__vector_10+0x52>
     8b6:	80 91 81 00 	lds	r24, 0x0081	; 0x800081 <__TEXT_REGION_LENGTH__+0x7f8081>
     8ba:	8f 7b       	andi	r24, 0xBF	; 191
     8bc:	80 93 81 00 	sts	0x0081, r24	; 0x800081 <__TEXT_REGION_LENGTH__+0x7f8081>
     8c0:	80 91 86 00 	lds	r24, 0x0086	; 0x800086 <__TEXT_REGION_LENGTH__+0x7f8086>
     8c4:	90 91 87 00 	lds	r25, 0x0087	; 0x800087 <__TEXT_REGION_LENGTH__+0x7f8087>
     8c8:	90 93 85 01 	sts	0x0185, r25	; 0x800185 <rising+0x1>
     8cc:	80 93 84 01 	sts	0x0184, r24	; 0x800184 <rising>
     8d0:	42 c0       	rjmp	.+132    	; 0x956 <__stack+0x57>
     8d2:	80 91 81 00 	lds	r24, 0x0081	; 0x800081 <__TEXT_REGION_LENGTH__+0x7f8081>
     8d6:	80 64       	ori	r24, 0x40	; 64
     8d8:	80 93 81 00 	sts	0x0081, r24	; 0x800081 <__TEXT_REGION_LENGTH__+0x7f8081>
     8dc:	60 91 86 00 	lds	r22, 0x0086	; 0x800086 <__TEXT_REGION_LENGTH__+0x7f8086>
     8e0:	70 91 87 00 	lds	r23, 0x0087	; 0x800087 <__TEXT_REGION_LENGTH__+0x7f8087>
     8e4:	70 93 7b 01 	sts	0x017B, r23	; 0x80017b <falling+0x1>
     8e8:	60 93 7a 01 	sts	0x017A, r22	; 0x80017a <falling>
     8ec:	80 91 84 01 	lds	r24, 0x0184	; 0x800184 <rising>
     8f0:	90 91 85 01 	lds	r25, 0x0185	; 0x800185 <rising+0x1>
     8f4:	eb 01       	movw	r28, r22
     8f6:	c8 1b       	sub	r28, r24
     8f8:	d9 0b       	sbc	r29, r25
     8fa:	d0 93 83 01 	sts	0x0183, r29	; 0x800183 <counts+0x1>
     8fe:	c0 93 82 01 	sts	0x0182, r28	; 0x800182 <counts>
     902:	60 91 80 01 	lds	r22, 0x0180	; 0x800180 <us_per_count>
     906:	70 91 81 01 	lds	r23, 0x0181	; 0x800181 <us_per_count+0x1>
     90a:	80 e0       	ldi	r24, 0x00	; 0
     90c:	90 e0       	ldi	r25, 0x00	; 0
     90e:	0e 94 81 08 	call	0x1102	; 0x1102 <__floatunsisf>
     912:	6b 01       	movw	r12, r22
     914:	7c 01       	movw	r14, r24
     916:	be 01       	movw	r22, r28
     918:	dd 0f       	add	r29, r29
     91a:	88 0b       	sbc	r24, r24
     91c:	99 0b       	sbc	r25, r25
     91e:	0e 94 83 08 	call	0x1106	; 0x1106 <__floatsisf>
     922:	9b 01       	movw	r18, r22
     924:	ac 01       	movw	r20, r24
     926:	c7 01       	movw	r24, r14
     928:	b6 01       	movw	r22, r12
     92a:	0e 94 5d 09 	call	0x12ba	; 0x12ba <__mulsf3>
     92e:	20 e0       	ldi	r18, 0x00	; 0
     930:	30 e0       	ldi	r19, 0x00	; 0
     932:	40 e2       	ldi	r20, 0x20	; 32
     934:	51 e4       	ldi	r21, 0x41	; 65
     936:	0e 94 5d 09 	call	0x12ba	; 0x12ba <__mulsf3>
     93a:	20 e0       	ldi	r18, 0x00	; 0
     93c:	30 e0       	ldi	r19, 0x00	; 0
     93e:	41 e1       	ldi	r20, 0x11	; 17
     940:	54 e4       	ldi	r21, 0x44	; 68
     942:	0e 94 d3 07 	call	0xfa6	; 0xfa6 <__divsf3>
     946:	60 93 7c 01 	sts	0x017C, r22	; 0x80017c <dist>
     94a:	70 93 7d 01 	sts	0x017D, r23	; 0x80017d <dist+0x1>
     94e:	80 93 7e 01 	sts	0x017E, r24	; 0x80017e <dist+0x2>
     952:	90 93 7f 01 	sts	0x017F, r25	; 0x80017f <dist+0x3>
     956:	ff 91       	pop	r31
     958:	ef 91       	pop	r30
     95a:	df 91       	pop	r29
     95c:	cf 91       	pop	r28
     95e:	bf 91       	pop	r27
     960:	af 91       	pop	r26
     962:	9f 91       	pop	r25
     964:	8f 91       	pop	r24
     966:	7f 91       	pop	r23
     968:	6f 91       	pop	r22
     96a:	5f 91       	pop	r21
     96c:	4f 91       	pop	r20
     96e:	3f 91       	pop	r19
     970:	2f 91       	pop	r18
     972:	ff 90       	pop	r15
     974:	ef 90       	pop	r14
     976:	df 90       	pop	r13
     978:	cf 90       	pop	r12
     97a:	0f 90       	pop	r0
     97c:	0f be       	out	0x3f, r0	; 63
     97e:	0f 90       	pop	r0
     980:	1f 90       	pop	r1
     982:	18 95       	reti

00000984 <init_ultrasonic_sensor>:
     984:	22 9a       	sbi	0x04, 2	; 4
     986:	e1 e8       	ldi	r30, 0x81	; 129
     988:	f0 e0       	ldi	r31, 0x00	; 0
     98a:	80 81       	ld	r24, Z
     98c:	80 68       	ori	r24, 0x80	; 128
     98e:	80 83       	st	Z, r24
     990:	80 81       	ld	r24, Z
     992:	83 60       	ori	r24, 0x03	; 3
     994:	80 83       	st	Z, r24
     996:	80 81       	ld	r24, Z
     998:	88 60       	ori	r24, 0x08	; 8
     99a:	80 83       	st	Z, r24
     99c:	af e6       	ldi	r26, 0x6F	; 111
     99e:	b0 e0       	ldi	r27, 0x00	; 0
     9a0:	8c 91       	ld	r24, X
     9a2:	82 62       	ori	r24, 0x22	; 34
     9a4:	8c 93       	st	X, r24
     9a6:	80 81       	ld	r24, Z
     9a8:	80 64       	ori	r24, 0x40	; 64
     9aa:	80 83       	st	Z, r24
     9ac:	8c e5       	ldi	r24, 0x5C	; 92
     9ae:	94 e4       	ldi	r25, 0x44	; 68
     9b0:	90 93 89 00 	sts	0x0089, r25	; 0x800089 <__TEXT_REGION_LENGTH__+0x7f8089>
     9b4:	80 93 88 00 	sts	0x0088, r24	; 0x800088 <__TEXT_REGION_LENGTH__+0x7f8088>
     9b8:	84 e0       	ldi	r24, 0x04	; 4
     9ba:	90 e0       	ldi	r25, 0x00	; 0
     9bc:	90 93 81 01 	sts	0x0181, r25	; 0x800181 <us_per_count+0x1>
     9c0:	80 93 80 01 	sts	0x0180, r24	; 0x800180 <us_per_count>
     9c4:	78 94       	sei
     9c6:	08 95       	ret

000009c8 <get_dist>:
     9c8:	60 91 7c 01 	lds	r22, 0x017C	; 0x80017c <dist>
     9cc:	70 91 7d 01 	lds	r23, 0x017D	; 0x80017d <dist+0x1>
     9d0:	80 91 7e 01 	lds	r24, 0x017E	; 0x80017e <dist+0x2>
     9d4:	90 91 7f 01 	lds	r25, 0x017F	; 0x80017f <dist+0x3>
     9d8:	08 95       	ret

000009da <i2c_start>:
     9da:	94 ea       	ldi	r25, 0xA4	; 164
     9dc:	90 93 bc 00 	sts	0x00BC, r25	; 0x8000bc <__TEXT_REGION_LENGTH__+0x7f80bc>
     9e0:	20 e4       	ldi	r18, 0x40	; 64
     9e2:	31 e0       	ldi	r19, 0x01	; 1
     9e4:	90 91 bc 00 	lds	r25, 0x00BC	; 0x8000bc <__TEXT_REGION_LENGTH__+0x7f80bc>
     9e8:	97 fd       	sbrc	r25, 7
     9ea:	07 c0       	rjmp	.+14     	; 0x9fa <i2c_start+0x20>
     9ec:	21 50       	subi	r18, 0x01	; 1
     9ee:	31 09       	sbc	r19, r1
     9f0:	c9 f7       	brne	.-14     	; 0x9e4 <i2c_start+0xa>
     9f2:	80 91 86 01 	lds	r24, 0x0186	; 0x800186 <I2C_ErrorCode>
     9f6:	81 60       	ori	r24, 0x01	; 1
     9f8:	10 c0       	rjmp	.+32     	; 0xa1a <i2c_start+0x40>
     9fa:	80 93 bb 00 	sts	0x00BB, r24	; 0x8000bb <__TEXT_REGION_LENGTH__+0x7f80bb>
     9fe:	84 e8       	ldi	r24, 0x84	; 132
     a00:	80 93 bc 00 	sts	0x00BC, r24	; 0x8000bc <__TEXT_REGION_LENGTH__+0x7f80bc>
     a04:	80 e4       	ldi	r24, 0x40	; 64
     a06:	91 e0       	ldi	r25, 0x01	; 1
     a08:	20 91 bc 00 	lds	r18, 0x00BC	; 0x8000bc <__TEXT_REGION_LENGTH__+0x7f80bc>
     a0c:	27 fd       	sbrc	r18, 7
     a0e:	08 c0       	rjmp	.+16     	; 0xa20 <i2c_start+0x46>
     a10:	01 97       	sbiw	r24, 0x01	; 1
     a12:	d1 f7       	brne	.-12     	; 0xa08 <i2c_start+0x2e>
     a14:	80 91 86 01 	lds	r24, 0x0186	; 0x800186 <I2C_ErrorCode>
     a18:	82 60       	ori	r24, 0x02	; 2
     a1a:	80 93 86 01 	sts	0x0186, r24	; 0x800186 <I2C_ErrorCode>
     a1e:	08 95       	ret
     a20:	08 95       	ret

00000a22 <i2c_stop>:
     a22:	84 e9       	ldi	r24, 0x94	; 148
     a24:	80 93 bc 00 	sts	0x00BC, r24	; 0x8000bc <__TEXT_REGION_LENGTH__+0x7f80bc>
     a28:	08 95       	ret

00000a2a <i2c_byte>:
     a2a:	80 93 bb 00 	sts	0x00BB, r24	; 0x8000bb <__TEXT_REGION_LENGTH__+0x7f80bb>
     a2e:	84 e8       	ldi	r24, 0x84	; 132
     a30:	80 93 bc 00 	sts	0x00BC, r24	; 0x8000bc <__TEXT_REGION_LENGTH__+0x7f80bc>
     a34:	80 e4       	ldi	r24, 0x40	; 64
     a36:	91 e0       	ldi	r25, 0x01	; 1
     a38:	20 91 bc 00 	lds	r18, 0x00BC	; 0x8000bc <__TEXT_REGION_LENGTH__+0x7f80bc>
     a3c:	27 fd       	sbrc	r18, 7
     a3e:	08 c0       	rjmp	.+16     	; 0xa50 <i2c_byte+0x26>
     a40:	01 97       	sbiw	r24, 0x01	; 1
     a42:	d1 f7       	brne	.-12     	; 0xa38 <i2c_byte+0xe>
     a44:	80 91 86 01 	lds	r24, 0x0186	; 0x800186 <I2C_ErrorCode>
     a48:	84 60       	ori	r24, 0x04	; 4
     a4a:	80 93 86 01 	sts	0x0186, r24	; 0x800186 <I2C_ErrorCode>
     a4e:	08 95       	ret
     a50:	08 95       	ret

00000a52 <i2c_readAck>:
     a52:	84 ec       	ldi	r24, 0xC4	; 196
     a54:	80 93 bc 00 	sts	0x00BC, r24	; 0x8000bc <__TEXT_REGION_LENGTH__+0x7f80bc>
     a58:	80 e4       	ldi	r24, 0x40	; 64
     a5a:	91 e0       	ldi	r25, 0x01	; 1
     a5c:	20 91 bc 00 	lds	r18, 0x00BC	; 0x8000bc <__TEXT_REGION_LENGTH__+0x7f80bc>
     a60:	27 fd       	sbrc	r18, 7
     a62:	09 c0       	rjmp	.+18     	; 0xa76 <i2c_readAck+0x24>
     a64:	01 97       	sbiw	r24, 0x01	; 1
     a66:	d1 f7       	brne	.-12     	; 0xa5c <i2c_readAck+0xa>
     a68:	80 91 86 01 	lds	r24, 0x0186	; 0x800186 <I2C_ErrorCode>
     a6c:	88 60       	ori	r24, 0x08	; 8
     a6e:	80 93 86 01 	sts	0x0186, r24	; 0x800186 <I2C_ErrorCode>
     a72:	80 e0       	ldi	r24, 0x00	; 0
     a74:	08 95       	ret
     a76:	80 91 bb 00 	lds	r24, 0x00BB	; 0x8000bb <__TEXT_REGION_LENGTH__+0x7f80bb>
     a7a:	08 95       	ret

00000a7c <i2c_readNAck>:
     a7c:	84 e8       	ldi	r24, 0x84	; 132
     a7e:	80 93 bc 00 	sts	0x00BC, r24	; 0x8000bc <__TEXT_REGION_LENGTH__+0x7f80bc>
     a82:	80 e4       	ldi	r24, 0x40	; 64
     a84:	91 e0       	ldi	r25, 0x01	; 1
     a86:	20 91 bc 00 	lds	r18, 0x00BC	; 0x8000bc <__TEXT_REGION_LENGTH__+0x7f80bc>
     a8a:	27 fd       	sbrc	r18, 7
     a8c:	09 c0       	rjmp	.+18     	; 0xaa0 <i2c_readNAck+0x24>
     a8e:	01 97       	sbiw	r24, 0x01	; 1
     a90:	d1 f7       	brne	.-12     	; 0xa86 <i2c_readNAck+0xa>
     a92:	80 91 86 01 	lds	r24, 0x0186	; 0x800186 <I2C_ErrorCode>
     a96:	80 61       	ori	r24, 0x10	; 16
     a98:	80 93 86 01 	sts	0x0186, r24	; 0x800186 <I2C_ErrorCode>
     a9c:	80 e0       	ldi	r24, 0x00	; 0
     a9e:	08 95       	ret
     aa0:	80 91 bb 00 	lds	r24, 0x00BB	; 0x8000bb <__TEXT_REGION_LENGTH__+0x7f80bb>
     aa4:	08 95       	ret

00000aa6 <toggle_e>:
     aa6:	29 9a       	sbi	0x05, 1	; 5
     aa8:	85 e0       	ldi	r24, 0x05	; 5
     aaa:	8a 95       	dec	r24
     aac:	f1 f7       	brne	.-4      	; 0xaaa <toggle_e+0x4>
     aae:	00 00       	nop
     ab0:	29 98       	cbi	0x05, 1	; 5
     ab2:	08 95       	ret

00000ab4 <lcd_write>:
     ab4:	cf 93       	push	r28
     ab6:	c8 2f       	mov	r28, r24
     ab8:	66 23       	and	r22, r22
     aba:	11 f0       	breq	.+4      	; 0xac0 <lcd_write+0xc>
     abc:	28 9a       	sbi	0x05, 0	; 5
     abe:	01 c0       	rjmp	.+2      	; 0xac2 <lcd_write+0xe>
     ac0:	28 98       	cbi	0x05, 0	; 5
     ac2:	54 9a       	sbi	0x0a, 4	; 10
     ac4:	55 9a       	sbi	0x0a, 5	; 10
     ac6:	56 9a       	sbi	0x0a, 6	; 10
     ac8:	57 9a       	sbi	0x0a, 7	; 10
     aca:	5f 98       	cbi	0x0b, 7	; 11
     acc:	5e 98       	cbi	0x0b, 6	; 11
     ace:	5d 98       	cbi	0x0b, 5	; 11
     ad0:	5c 98       	cbi	0x0b, 4	; 11
     ad2:	c7 fd       	sbrc	r28, 7
     ad4:	5f 9a       	sbi	0x0b, 7	; 11
     ad6:	c6 fd       	sbrc	r28, 6
     ad8:	5e 9a       	sbi	0x0b, 6	; 11
     ada:	c5 fd       	sbrc	r28, 5
     adc:	5d 9a       	sbi	0x0b, 5	; 11
     ade:	c4 fd       	sbrc	r28, 4
     ae0:	5c 9a       	sbi	0x0b, 4	; 11
     ae2:	0e 94 53 05 	call	0xaa6	; 0xaa6 <toggle_e>
     ae6:	5f 98       	cbi	0x0b, 7	; 11
     ae8:	5e 98       	cbi	0x0b, 6	; 11
     aea:	5d 98       	cbi	0x0b, 5	; 11
     aec:	5c 98       	cbi	0x0b, 4	; 11
     aee:	c3 fd       	sbrc	r28, 3
     af0:	5f 9a       	sbi	0x0b, 7	; 11
     af2:	c2 fd       	sbrc	r28, 2
     af4:	5e 9a       	sbi	0x0b, 6	; 11
     af6:	c1 fd       	sbrc	r28, 1
     af8:	5d 9a       	sbi	0x0b, 5	; 11
     afa:	c0 fd       	sbrc	r28, 0
     afc:	5c 9a       	sbi	0x0b, 4	; 11
     afe:	0e 94 53 05 	call	0xaa6	; 0xaa6 <toggle_e>
     b02:	5c 9a       	sbi	0x0b, 4	; 11
     b04:	5d 9a       	sbi	0x0b, 5	; 11
     b06:	5e 9a       	sbi	0x0b, 6	; 11
     b08:	5f 9a       	sbi	0x0b, 7	; 11
     b0a:	87 eb       	ldi	r24, 0xB7	; 183
     b0c:	9b e0       	ldi	r25, 0x0B	; 11
     b0e:	01 97       	sbiw	r24, 0x01	; 1
     b10:	f1 f7       	brne	.-4      	; 0xb0e <lcd_write+0x5a>
     b12:	00 c0       	rjmp	.+0      	; 0xb14 <lcd_write+0x60>
     b14:	00 00       	nop
     b16:	cf 91       	pop	r28
     b18:	08 95       	ret

00000b1a <lcd_command>:
     b1a:	60 e0       	ldi	r22, 0x00	; 0
     b1c:	0c 94 5a 05 	jmp	0xab4	; 0xab4 <lcd_write>

00000b20 <lcd_gotoxy>:
     b20:	61 11       	cpse	r22, r1
     b22:	02 c0       	rjmp	.+4      	; 0xb28 <lcd_gotoxy+0x8>
     b24:	80 58       	subi	r24, 0x80	; 128
     b26:	01 c0       	rjmp	.+2      	; 0xb2a <lcd_gotoxy+0xa>
     b28:	80 54       	subi	r24, 0x40	; 64
     b2a:	0c 94 8d 05 	jmp	0xb1a	; 0xb1a <lcd_command>

00000b2e <lcd_clrscr>:
     b2e:	81 e0       	ldi	r24, 0x01	; 1
     b30:	0c 94 8d 05 	jmp	0xb1a	; 0xb1a <lcd_command>

00000b34 <lcd_putc>:
     b34:	61 e0       	ldi	r22, 0x01	; 1
     b36:	0c 94 5a 05 	jmp	0xab4	; 0xab4 <lcd_write>

00000b3a <lcd_puts>:
     b3a:	cf 93       	push	r28
     b3c:	df 93       	push	r29
     b3e:	ec 01       	movw	r28, r24
     b40:	89 91       	ld	r24, Y+
     b42:	88 23       	and	r24, r24
     b44:	19 f0       	breq	.+6      	; 0xb4c <lcd_puts+0x12>
     b46:	0e 94 9a 05 	call	0xb34	; 0xb34 <lcd_putc>
     b4a:	fa cf       	rjmp	.-12     	; 0xb40 <lcd_puts+0x6>
     b4c:	df 91       	pop	r29
     b4e:	cf 91       	pop	r28
     b50:	08 95       	ret

00000b52 <lcd_init>:
     b52:	cf 93       	push	r28
     b54:	c8 2f       	mov	r28, r24
     b56:	20 9a       	sbi	0x04, 0	; 4
     b58:	55 9a       	sbi	0x0a, 5	; 10
     b5a:	21 9a       	sbi	0x04, 1	; 4
     b5c:	54 9a       	sbi	0x0a, 4	; 10
     b5e:	55 9a       	sbi	0x0a, 5	; 10
     b60:	56 9a       	sbi	0x0a, 6	; 10
     b62:	57 9a       	sbi	0x0a, 7	; 10
     b64:	8f ef       	ldi	r24, 0xFF	; 255
     b66:	99 ef       	ldi	r25, 0xF9	; 249
     b68:	01 97       	sbiw	r24, 0x01	; 1
     b6a:	f1 f7       	brne	.-4      	; 0xb68 <lcd_init+0x16>
     b6c:	00 c0       	rjmp	.+0      	; 0xb6e <lcd_init+0x1c>
     b6e:	00 00       	nop
     b70:	5d 9a       	sbi	0x0b, 5	; 11
     b72:	5c 9a       	sbi	0x0b, 4	; 11
     b74:	0e 94 53 05 	call	0xaa6	; 0xaa6 <toggle_e>
     b78:	8f e1       	ldi	r24, 0x1F	; 31
     b7a:	9e e4       	ldi	r25, 0x4E	; 78
     b7c:	01 97       	sbiw	r24, 0x01	; 1
     b7e:	f1 f7       	brne	.-4      	; 0xb7c <lcd_init+0x2a>
     b80:	00 c0       	rjmp	.+0      	; 0xb82 <lcd_init+0x30>
     b82:	00 00       	nop
     b84:	0e 94 53 05 	call	0xaa6	; 0xaa6 <toggle_e>
     b88:	8f ef       	ldi	r24, 0xFF	; 255
     b8a:	90 e0       	ldi	r25, 0x00	; 0
     b8c:	01 97       	sbiw	r24, 0x01	; 1
     b8e:	f1 f7       	brne	.-4      	; 0xb8c <lcd_init+0x3a>
     b90:	00 c0       	rjmp	.+0      	; 0xb92 <lcd_init+0x40>
     b92:	00 00       	nop
     b94:	0e 94 53 05 	call	0xaa6	; 0xaa6 <toggle_e>
     b98:	8f ef       	ldi	r24, 0xFF	; 255
     b9a:	90 e0       	ldi	r25, 0x00	; 0
     b9c:	01 97       	sbiw	r24, 0x01	; 1
     b9e:	f1 f7       	brne	.-4      	; 0xb9c <lcd_init+0x4a>
     ba0:	00 c0       	rjmp	.+0      	; 0xba2 <lcd_init+0x50>
     ba2:	00 00       	nop
     ba4:	5c 98       	cbi	0x0b, 4	; 11
     ba6:	0e 94 53 05 	call	0xaa6	; 0xaa6 <toggle_e>
     baa:	8f ef       	ldi	r24, 0xFF	; 255
     bac:	90 e0       	ldi	r25, 0x00	; 0
     bae:	01 97       	sbiw	r24, 0x01	; 1
     bb0:	f1 f7       	brne	.-4      	; 0xbae <lcd_init+0x5c>
     bb2:	00 c0       	rjmp	.+0      	; 0xbb4 <lcd_init+0x62>
     bb4:	00 00       	nop
     bb6:	88 e2       	ldi	r24, 0x28	; 40
     bb8:	0e 94 8d 05 	call	0xb1a	; 0xb1a <lcd_command>
     bbc:	88 e0       	ldi	r24, 0x08	; 8
     bbe:	0e 94 8d 05 	call	0xb1a	; 0xb1a <lcd_command>
     bc2:	0e 94 97 05 	call	0xb2e	; 0xb2e <lcd_clrscr>
     bc6:	86 e0       	ldi	r24, 0x06	; 6
     bc8:	0e 94 8d 05 	call	0xb1a	; 0xb1a <lcd_command>
     bcc:	8c 2f       	mov	r24, r28
     bce:	cf 91       	pop	r28
     bd0:	0c 94 8d 05 	jmp	0xb1a	; 0xb1a <lcd_command>

00000bd4 <Display>:
     bd4:	0f 93       	push	r16
     bd6:	1f 93       	push	r17
     bd8:	cf 93       	push	r28
     bda:	df 93       	push	r29
     bdc:	00 d0       	rcall	.+0      	; 0xbde <Display+0xa>
     bde:	cd b7       	in	r28, 0x3d	; 61
     be0:	de b7       	in	r29, 0x3e	; 62
     be2:	18 2f       	mov	r17, r24
     be4:	06 2f       	mov	r16, r22
     be6:	80 e2       	ldi	r24, 0x20	; 32
     be8:	90 e0       	ldi	r25, 0x00	; 0
     bea:	9a 83       	std	Y+2, r25	; 0x02
     bec:	89 83       	std	Y+1, r24	; 0x01
     bee:	60 e0       	ldi	r22, 0x00	; 0
     bf0:	80 e0       	ldi	r24, 0x00	; 0
     bf2:	0e 94 90 05 	call	0xb20	; 0xb20 <lcd_gotoxy>
     bf6:	85 e0       	ldi	r24, 0x05	; 5
     bf8:	91 e0       	ldi	r25, 0x01	; 1
     bfa:	0e 94 9d 05 	call	0xb3a	; 0xb3a <lcd_puts>
     bfe:	4a e0       	ldi	r20, 0x0A	; 10
     c00:	be 01       	movw	r22, r28
     c02:	6f 5f       	subi	r22, 0xFF	; 255
     c04:	7f 4f       	sbci	r23, 0xFF	; 255
     c06:	80 2f       	mov	r24, r16
     c08:	90 e0       	ldi	r25, 0x00	; 0
     c0a:	0e 94 f6 0b 	call	0x17ec	; 0x17ec <__itoa_ncheck>
     c0e:	11 30       	cpi	r17, 0x01	; 1
     c10:	19 f1       	breq	.+70     	; 0xc58 <Display+0x84>
     c12:	98 f0       	brcs	.+38     	; 0xc3a <Display+0x66>
     c14:	12 30       	cpi	r17, 0x02	; 2
     c16:	39 f1       	breq	.+78     	; 0xc66 <Display+0x92>
     c18:	13 30       	cpi	r17, 0x03	; 3
     c1a:	a9 f5       	brne	.+106    	; 0xc86 <Display+0xb2>
     c1c:	60 e0       	ldi	r22, 0x00	; 0
     c1e:	80 e0       	ldi	r24, 0x00	; 0
     c20:	0e 94 90 05 	call	0xb20	; 0xb20 <lcd_gotoxy>
     c24:	86 e4       	ldi	r24, 0x46	; 70
     c26:	91 e0       	ldi	r25, 0x01	; 1
     c28:	0e 94 9d 05 	call	0xb3a	; 0xb3a <lcd_puts>
     c2c:	65 e0       	ldi	r22, 0x05	; 5
     c2e:	81 e0       	ldi	r24, 0x01	; 1
     c30:	0e 94 90 05 	call	0xb20	; 0xb20 <lcd_gotoxy>
     c34:	80 e5       	ldi	r24, 0x50	; 80
     c36:	91 e0       	ldi	r25, 0x01	; 1
     c38:	24 c0       	rjmp	.+72     	; 0xc82 <Display+0xae>
     c3a:	60 e0       	ldi	r22, 0x00	; 0
     c3c:	80 e0       	ldi	r24, 0x00	; 0
     c3e:	0e 94 90 05 	call	0xb20	; 0xb20 <lcd_gotoxy>
     c42:	8d e2       	ldi	r24, 0x2D	; 45
     c44:	91 e0       	ldi	r25, 0x01	; 1
     c46:	0e 94 9d 05 	call	0xb3a	; 0xb3a <lcd_puts>
     c4a:	65 e0       	ldi	r22, 0x05	; 5
     c4c:	81 e0       	ldi	r24, 0x01	; 1
     c4e:	0e 94 90 05 	call	0xb20	; 0xb20 <lcd_gotoxy>
     c52:	84 e3       	ldi	r24, 0x34	; 52
     c54:	91 e0       	ldi	r25, 0x01	; 1
     c56:	15 c0       	rjmp	.+42     	; 0xc82 <Display+0xae>
     c58:	60 e0       	ldi	r22, 0x00	; 0
     c5a:	80 e0       	ldi	r24, 0x00	; 0
     c5c:	0e 94 90 05 	call	0xb20	; 0xb20 <lcd_gotoxy>
     c60:	87 e3       	ldi	r24, 0x37	; 55
     c62:	91 e0       	ldi	r25, 0x01	; 1
     c64:	06 c0       	rjmp	.+12     	; 0xc72 <Display+0x9e>
     c66:	60 e0       	ldi	r22, 0x00	; 0
     c68:	80 e0       	ldi	r24, 0x00	; 0
     c6a:	0e 94 90 05 	call	0xb20	; 0xb20 <lcd_gotoxy>
     c6e:	80 e4       	ldi	r24, 0x40	; 64
     c70:	91 e0       	ldi	r25, 0x01	; 1
     c72:	0e 94 9d 05 	call	0xb3a	; 0xb3a <lcd_puts>
     c76:	65 e0       	ldi	r22, 0x05	; 5
     c78:	81 e0       	ldi	r24, 0x01	; 1
     c7a:	0e 94 90 05 	call	0xb20	; 0xb20 <lcd_gotoxy>
     c7e:	8e e3       	ldi	r24, 0x3E	; 62
     c80:	91 e0       	ldi	r25, 0x01	; 1
     c82:	0e 94 9d 05 	call	0xb3a	; 0xb3a <lcd_puts>
     c86:	60 e0       	ldi	r22, 0x00	; 0
     c88:	81 e0       	ldi	r24, 0x01	; 1
     c8a:	0e 94 90 05 	call	0xb20	; 0xb20 <lcd_gotoxy>
     c8e:	ce 01       	movw	r24, r28
     c90:	01 96       	adiw	r24, 0x01	; 1
     c92:	0e 94 9d 05 	call	0xb3a	; 0xb3a <lcd_puts>
     c96:	0f 90       	pop	r0
     c98:	0f 90       	pop	r0
     c9a:	df 91       	pop	r29
     c9c:	cf 91       	pop	r28
     c9e:	1f 91       	pop	r17
     ca0:	0f 91       	pop	r16
     ca2:	08 95       	ret

00000ca4 <PressureGetValue>:
     ca4:	cf 92       	push	r12
     ca6:	df 92       	push	r13
     ca8:	ef 92       	push	r14
     caa:	ff 92       	push	r15
     cac:	cf 93       	push	r28
     cae:	c8 2f       	mov	r28, r24
     cb0:	0e 94 6f 01 	call	0x2de	; 0x2de <bme280_readPressure>
     cb4:	6b 01       	movw	r12, r22
     cb6:	7c 01       	movw	r14, r24
     cb8:	6c 2f       	mov	r22, r28
     cba:	70 e0       	ldi	r23, 0x00	; 0
     cbc:	80 e0       	ldi	r24, 0x00	; 0
     cbe:	90 e0       	ldi	r25, 0x00	; 0
     cc0:	0e 94 83 08 	call	0x1106	; 0x1106 <__floatsisf>
     cc4:	a7 01       	movw	r20, r14
     cc6:	96 01       	movw	r18, r12
     cc8:	0e 94 66 07 	call	0xecc	; 0xecc <__subsf3>
     ccc:	20 e0       	ldi	r18, 0x00	; 0
     cce:	30 e2       	ldi	r19, 0x20	; 32
     cd0:	49 e1       	ldi	r20, 0x19	; 25
     cd2:	56 e4       	ldi	r21, 0x46	; 70
     cd4:	0e 94 5d 09 	call	0x12ba	; 0x12ba <__mulsf3>
     cd8:	20 e0       	ldi	r18, 0x00	; 0
     cda:	30 e0       	ldi	r19, 0x00	; 0
     cdc:	4a e7       	ldi	r20, 0x7A	; 122
     cde:	54 e4       	ldi	r21, 0x44	; 68
     ce0:	0e 94 d3 07 	call	0xfa6	; 0xfa6 <__divsf3>
     ce4:	0e 94 ca 09 	call	0x1394	; 0x1394 <round>
     ce8:	0e 94 4c 08 	call	0x1098	; 0x1098 <__fixunssfsi>
     cec:	86 2f       	mov	r24, r22
     cee:	cf 91       	pop	r28
     cf0:	ff 90       	pop	r15
     cf2:	ef 90       	pop	r14
     cf4:	df 90       	pop	r13
     cf6:	cf 90       	pop	r12
     cf8:	08 95       	ret

00000cfa <ReadKeys>:
     cfa:	20 91 78 00 	lds	r18, 0x0078	; 0x800078 <__TEXT_REGION_LENGTH__+0x7f8078>
     cfe:	30 91 79 00 	lds	r19, 0x0079	; 0x800079 <__TEXT_REGION_LENGTH__+0x7f8079>
     d02:	22 33       	cpi	r18, 0x32	; 50
     d04:	48 f0       	brcs	.+18     	; 0xd18 <ReadKeys+0x1e>
     d06:	27 39       	cpi	r18, 0x97	; 151
     d08:	28 f0       	brcs	.+10     	; 0xd14 <ReadKeys+0x1a>
     d0a:	8f 5f       	subi	r24, 0xFF	; 255
     d0c:	85 30       	cpi	r24, 0x05	; 5
     d0e:	88 f0       	brcs	.+34     	; 0xd32 <ReadKeys+0x38>
     d10:	80 e0       	ldi	r24, 0x00	; 0
     d12:	08 95       	ret
     d14:	81 50       	subi	r24, 0x01	; 1
     d16:	08 95       	ret
     d18:	fb 01       	movw	r30, r22
     d1a:	e8 0f       	add	r30, r24
     d1c:	f1 1d       	adc	r31, r1
     d1e:	e8 0f       	add	r30, r24
     d20:	f1 1d       	adc	r31, r1
     d22:	01 90       	ld	r0, Z+
     d24:	f0 81       	ld	r31, Z
     d26:	e0 2d       	mov	r30, r0
     d28:	90 81       	ld	r25, Z
     d2a:	92 36       	cpi	r25, 0x62	; 98
     d2c:	10 f4       	brcc	.+4      	; 0xd32 <ReadKeys+0x38>
     d2e:	9b 5f       	subi	r25, 0xFB	; 251
     d30:	90 83       	st	Z, r25
     d32:	08 95       	ret

00000d34 <DistanceSensorValue>:
     d34:	8f 92       	push	r8
     d36:	9f 92       	push	r9
     d38:	af 92       	push	r10
     d3a:	bf 92       	push	r11
     d3c:	cf 92       	push	r12
     d3e:	df 92       	push	r13
     d40:	ef 92       	push	r14
     d42:	ff 92       	push	r15
     d44:	cf 93       	push	r28
     d46:	c8 2f       	mov	r28, r24
     d48:	0e 94 e4 04 	call	0x9c8	; 0x9c8 <get_dist>
     d4c:	4b 01       	movw	r8, r22
     d4e:	5c 01       	movw	r10, r24
     d50:	6c 2f       	mov	r22, r28
     d52:	70 e0       	ldi	r23, 0x00	; 0
     d54:	80 e0       	ldi	r24, 0x00	; 0
     d56:	90 e0       	ldi	r25, 0x00	; 0
     d58:	0e 94 83 08 	call	0x1106	; 0x1106 <__floatsisf>
     d5c:	6b 01       	movw	r12, r22
     d5e:	7c 01       	movw	r14, r24
     d60:	20 e0       	ldi	r18, 0x00	; 0
     d62:	30 e0       	ldi	r19, 0x00	; 0
     d64:	48 ec       	ldi	r20, 0xC8	; 200
     d66:	52 e4       	ldi	r21, 0x42	; 66
     d68:	c5 01       	movw	r24, r10
     d6a:	b4 01       	movw	r22, r8
     d6c:	0e 94 d3 07 	call	0xfa6	; 0xfa6 <__divsf3>
     d70:	9b 01       	movw	r18, r22
     d72:	ac 01       	movw	r20, r24
     d74:	c7 01       	movw	r24, r14
     d76:	b6 01       	movw	r22, r12
     d78:	0e 94 66 07 	call	0xecc	; 0xecc <__subsf3>
     d7c:	0e 94 ca 09 	call	0x1394	; 0x1394 <round>
     d80:	0e 94 45 08 	call	0x108a	; 0x108a <__fixsfsi>
     d84:	86 2f       	mov	r24, r22
     d86:	cf 91       	pop	r28
     d88:	ff 90       	pop	r15
     d8a:	ef 90       	pop	r14
     d8c:	df 90       	pop	r13
     d8e:	cf 90       	pop	r12
     d90:	bf 90       	pop	r11
     d92:	af 90       	pop	r10
     d94:	9f 90       	pop	r9
     d96:	8f 90       	pop	r8
     d98:	08 95       	ret

00000d9a <main>:
     d9a:	0e 94 0f 04 	call	0x81e	; 0x81e <bme280_init>
     d9e:	0e 94 c2 04 	call	0x984	; 0x984 <init_ultrasonic_sensor>
     da2:	8c e0       	ldi	r24, 0x0C	; 12
     da4:	0e 94 a9 05 	call	0xb52	; 0xb52 <lcd_init>
     da8:	62 e0       	ldi	r22, 0x02	; 2
     daa:	70 e0       	ldi	r23, 0x00	; 0
     dac:	84 e2       	ldi	r24, 0x24	; 36
     dae:	90 e0       	ldi	r25, 0x00	; 0
     db0:	0e 94 27 07 	call	0xe4e	; 0xe4e <setupServoTimer>
     db4:	78 94       	sei
     db6:	80 91 54 01 	lds	r24, 0x0154	; 0x800154 <__data_end>
     dba:	e8 2f       	mov	r30, r24
     dbc:	f0 e0       	ldi	r31, 0x00	; 0
     dbe:	e0 50       	subi	r30, 0x00	; 0
     dc0:	ff 4f       	sbci	r31, 0xFF	; 255
     dc2:	60 81       	ld	r22, Z
     dc4:	0e 94 ea 05 	call	0xbd4	; 0xbd4 <Display>
     dc8:	80 91 04 01 	lds	r24, 0x0104	; 0x800104 <full>
     dcc:	0e 94 9a 06 	call	0xd34	; 0xd34 <DistanceSensorValue>
     dd0:	80 93 00 01 	sts	0x0100, r24	; 0x800100 <__DATA_REGION_ORIGIN__>
     dd4:	0e 94 52 06 	call	0xca4	; 0xca4 <PressureGetValue>
     dd8:	80 93 03 01 	sts	0x0103, r24	; 0x800103 <__DATA_REGION_ORIGIN__+0x3>
     ddc:	84 e6       	ldi	r24, 0x64	; 100
     dde:	90 e0       	ldi	r25, 0x00	; 0
     de0:	0e 94 4a 07 	call	0xe94	; 0xe94 <moveServoTimer>
     de4:	fb cf       	rjmp	.-10     	; 0xddc <main+0x42>

00000de6 <__vector_21>:
     de6:	1f 92       	push	r1
     de8:	0f 92       	push	r0
     dea:	0f b6       	in	r0, 0x3f	; 63
     dec:	0f 92       	push	r0
     dee:	11 24       	eor	r1, r1
     df0:	2f 93       	push	r18
     df2:	3f 93       	push	r19
     df4:	4f 93       	push	r20
     df6:	5f 93       	push	r21
     df8:	6f 93       	push	r22
     dfa:	7f 93       	push	r23
     dfc:	8f 93       	push	r24
     dfe:	9f 93       	push	r25
     e00:	af 93       	push	r26
     e02:	bf 93       	push	r27
     e04:	cf 93       	push	r28
     e06:	df 93       	push	r29
     e08:	ef 93       	push	r30
     e0a:	ff 93       	push	r31
     e0c:	c0 e0       	ldi	r28, 0x00	; 0
     e0e:	d1 e0       	ldi	r29, 0x01	; 1
     e10:	68 81       	ld	r22, Y
     e12:	70 e0       	ldi	r23, 0x00	; 0
     e14:	80 91 54 01 	lds	r24, 0x0154	; 0x800154 <__data_end>
     e18:	0e 94 7d 06 	call	0xcfa	; 0xcfa <ReadKeys>
     e1c:	80 93 54 01 	sts	0x0154, r24	; 0x800154 <__data_end>
     e20:	89 81       	ldd	r24, Y+1	; 0x01
     e22:	90 e0       	ldi	r25, 0x00	; 0
     e24:	0e 94 4a 07 	call	0xe94	; 0xe94 <moveServoTimer>
     e28:	ff 91       	pop	r31
     e2a:	ef 91       	pop	r30
     e2c:	df 91       	pop	r29
     e2e:	cf 91       	pop	r28
     e30:	bf 91       	pop	r27
     e32:	af 91       	pop	r26
     e34:	9f 91       	pop	r25
     e36:	8f 91       	pop	r24
     e38:	7f 91       	pop	r23
     e3a:	6f 91       	pop	r22
     e3c:	5f 91       	pop	r21
     e3e:	4f 91       	pop	r20
     e40:	3f 91       	pop	r19
     e42:	2f 91       	pop	r18
     e44:	0f 90       	pop	r0
     e46:	0f be       	out	0x3f, r0	; 63
     e48:	0f 90       	pop	r0
     e4a:	1f 90       	pop	r1
     e4c:	18 95       	reti

00000e4e <setupServoTimer>:
     e4e:	fc 01       	movw	r30, r24
     e50:	40 81       	ld	r20, Z
     e52:	21 e0       	ldi	r18, 0x01	; 1
     e54:	30 e0       	ldi	r19, 0x00	; 0
     e56:	01 c0       	rjmp	.+2      	; 0xe5a <setupServoTimer+0xc>
     e58:	22 0f       	add	r18, r18
     e5a:	6a 95       	dec	r22
     e5c:	ea f7       	brpl	.-6      	; 0xe58 <setupServoTimer+0xa>
     e5e:	24 2b       	or	r18, r20
     e60:	20 83       	st	Z, r18
     e62:	10 92 85 00 	sts	0x0085, r1	; 0x800085 <__TEXT_REGION_LENGTH__+0x7f8085>
     e66:	10 92 84 00 	sts	0x0084, r1	; 0x800084 <__TEXT_REGION_LENGTH__+0x7f8084>
     e6a:	8f e3       	ldi	r24, 0x3F	; 63
     e6c:	9c e9       	ldi	r25, 0x9C	; 156
     e6e:	90 93 87 00 	sts	0x0087, r25	; 0x800087 <__TEXT_REGION_LENGTH__+0x7f8087>
     e72:	80 93 86 00 	sts	0x0086, r24	; 0x800086 <__TEXT_REGION_LENGTH__+0x7f8086>
     e76:	e0 e8       	ldi	r30, 0x80	; 128
     e78:	f0 e0       	ldi	r31, 0x00	; 0
     e7a:	80 e8       	ldi	r24, 0x80	; 128
     e7c:	80 83       	st	Z, r24
     e7e:	80 81       	ld	r24, Z
     e80:	82 60       	ori	r24, 0x02	; 2
     e82:	80 83       	st	Z, r24
     e84:	e1 e8       	ldi	r30, 0x81	; 129
     e86:	f0 e0       	ldi	r31, 0x00	; 0
     e88:	88 e1       	ldi	r24, 0x18	; 24
     e8a:	80 83       	st	Z, r24
     e8c:	80 81       	ld	r24, Z
     e8e:	82 60       	ori	r24, 0x02	; 2
     e90:	80 83       	st	Z, r24
     e92:	08 95       	ret

00000e94 <moveServoTimer>:
     e94:	20 ed       	ldi	r18, 0xD0	; 208
     e96:	37 e0       	ldi	r19, 0x07	; 7
     e98:	48 2f       	mov	r20, r24
     e9a:	42 9f       	mul	r20, r18
     e9c:	c0 01       	movw	r24, r0
     e9e:	43 9f       	mul	r20, r19
     ea0:	90 0d       	add	r25, r0
     ea2:	11 24       	eor	r1, r1
     ea4:	6a e5       	ldi	r22, 0x5A	; 90
     ea6:	70 e0       	ldi	r23, 0x00	; 0
     ea8:	0e 94 27 0a 	call	0x144e	; 0x144e <__divmodhi4>
     eac:	07 2e       	mov	r0, r23
     eae:	00 0c       	add	r0, r0
     eb0:	88 0b       	sbc	r24, r24
     eb2:	99 0b       	sbc	r25, r25
     eb4:	0e 94 83 08 	call	0x1106	; 0x1106 <__floatsisf>
     eb8:	0e 94 ca 09 	call	0x1394	; 0x1394 <round>
     ebc:	0e 94 4c 08 	call	0x1098	; 0x1098 <__fixunssfsi>
     ec0:	70 e0       	ldi	r23, 0x00	; 0
     ec2:	70 93 8b 00 	sts	0x008B, r23	; 0x80008b <__TEXT_REGION_LENGTH__+0x7f808b>
     ec6:	60 93 8a 00 	sts	0x008A, r22	; 0x80008a <__TEXT_REGION_LENGTH__+0x7f808a>
     eca:	08 95       	ret

00000ecc <__subsf3>:
     ecc:	50 58       	subi	r21, 0x80	; 128

00000ece <__addsf3>:
     ece:	bb 27       	eor	r27, r27
     ed0:	aa 27       	eor	r26, r26
     ed2:	0e 94 7e 07 	call	0xefc	; 0xefc <__addsf3x>
     ed6:	0c 94 23 09 	jmp	0x1246	; 0x1246 <__fp_round>
     eda:	0e 94 15 09 	call	0x122a	; 0x122a <__fp_pscA>
     ede:	38 f0       	brcs	.+14     	; 0xeee <__addsf3+0x20>
     ee0:	0e 94 1c 09 	call	0x1238	; 0x1238 <__fp_pscB>
     ee4:	20 f0       	brcs	.+8      	; 0xeee <__addsf3+0x20>
     ee6:	39 f4       	brne	.+14     	; 0xef6 <__addsf3+0x28>
     ee8:	9f 3f       	cpi	r25, 0xFF	; 255
     eea:	19 f4       	brne	.+6      	; 0xef2 <__addsf3+0x24>
     eec:	26 f4       	brtc	.+8      	; 0xef6 <__addsf3+0x28>
     eee:	0c 94 02 09 	jmp	0x1204	; 0x1204 <__fp_nan>
     ef2:	0e f4       	brtc	.+2      	; 0xef6 <__addsf3+0x28>
     ef4:	e0 95       	com	r30
     ef6:	e7 fb       	bst	r30, 7
     ef8:	0c 94 fc 08 	jmp	0x11f8	; 0x11f8 <__fp_inf>

00000efc <__addsf3x>:
     efc:	e9 2f       	mov	r30, r25
     efe:	0e 94 34 09 	call	0x1268	; 0x1268 <__fp_split3>
     f02:	58 f3       	brcs	.-42     	; 0xeda <__addsf3+0xc>
     f04:	ba 17       	cp	r27, r26
     f06:	62 07       	cpc	r22, r18
     f08:	73 07       	cpc	r23, r19
     f0a:	84 07       	cpc	r24, r20
     f0c:	95 07       	cpc	r25, r21
     f0e:	20 f0       	brcs	.+8      	; 0xf18 <__addsf3x+0x1c>
     f10:	79 f4       	brne	.+30     	; 0xf30 <__addsf3x+0x34>
     f12:	a6 f5       	brtc	.+104    	; 0xf7c <__addsf3x+0x80>
     f14:	0c 94 56 09 	jmp	0x12ac	; 0x12ac <__fp_zero>
     f18:	0e f4       	brtc	.+2      	; 0xf1c <__addsf3x+0x20>
     f1a:	e0 95       	com	r30
     f1c:	0b 2e       	mov	r0, r27
     f1e:	ba 2f       	mov	r27, r26
     f20:	a0 2d       	mov	r26, r0
     f22:	0b 01       	movw	r0, r22
     f24:	b9 01       	movw	r22, r18
     f26:	90 01       	movw	r18, r0
     f28:	0c 01       	movw	r0, r24
     f2a:	ca 01       	movw	r24, r20
     f2c:	a0 01       	movw	r20, r0
     f2e:	11 24       	eor	r1, r1
     f30:	ff 27       	eor	r31, r31
     f32:	59 1b       	sub	r21, r25
     f34:	99 f0       	breq	.+38     	; 0xf5c <__addsf3x+0x60>
     f36:	59 3f       	cpi	r21, 0xF9	; 249
     f38:	50 f4       	brcc	.+20     	; 0xf4e <__addsf3x+0x52>
     f3a:	50 3e       	cpi	r21, 0xE0	; 224
     f3c:	68 f1       	brcs	.+90     	; 0xf98 <__addsf3x+0x9c>
     f3e:	1a 16       	cp	r1, r26
     f40:	f0 40       	sbci	r31, 0x00	; 0
     f42:	a2 2f       	mov	r26, r18
     f44:	23 2f       	mov	r18, r19
     f46:	34 2f       	mov	r19, r20
     f48:	44 27       	eor	r20, r20
     f4a:	58 5f       	subi	r21, 0xF8	; 248
     f4c:	f3 cf       	rjmp	.-26     	; 0xf34 <__addsf3x+0x38>
     f4e:	46 95       	lsr	r20
     f50:	37 95       	ror	r19
     f52:	27 95       	ror	r18
     f54:	a7 95       	ror	r26
     f56:	f0 40       	sbci	r31, 0x00	; 0
     f58:	53 95       	inc	r21
     f5a:	c9 f7       	brne	.-14     	; 0xf4e <__addsf3x+0x52>
     f5c:	7e f4       	brtc	.+30     	; 0xf7c <__addsf3x+0x80>
     f5e:	1f 16       	cp	r1, r31
     f60:	ba 0b       	sbc	r27, r26
     f62:	62 0b       	sbc	r22, r18
     f64:	73 0b       	sbc	r23, r19
     f66:	84 0b       	sbc	r24, r20
     f68:	ba f0       	brmi	.+46     	; 0xf98 <__addsf3x+0x9c>
     f6a:	91 50       	subi	r25, 0x01	; 1
     f6c:	a1 f0       	breq	.+40     	; 0xf96 <__addsf3x+0x9a>
     f6e:	ff 0f       	add	r31, r31
     f70:	bb 1f       	adc	r27, r27
     f72:	66 1f       	adc	r22, r22
     f74:	77 1f       	adc	r23, r23
     f76:	88 1f       	adc	r24, r24
     f78:	c2 f7       	brpl	.-16     	; 0xf6a <__addsf3x+0x6e>
     f7a:	0e c0       	rjmp	.+28     	; 0xf98 <__addsf3x+0x9c>
     f7c:	ba 0f       	add	r27, r26
     f7e:	62 1f       	adc	r22, r18
     f80:	73 1f       	adc	r23, r19
     f82:	84 1f       	adc	r24, r20
     f84:	48 f4       	brcc	.+18     	; 0xf98 <__addsf3x+0x9c>
     f86:	87 95       	ror	r24
     f88:	77 95       	ror	r23
     f8a:	67 95       	ror	r22
     f8c:	b7 95       	ror	r27
     f8e:	f7 95       	ror	r31
     f90:	9e 3f       	cpi	r25, 0xFE	; 254
     f92:	08 f0       	brcs	.+2      	; 0xf96 <__addsf3x+0x9a>
     f94:	b0 cf       	rjmp	.-160    	; 0xef6 <__addsf3+0x28>
     f96:	93 95       	inc	r25
     f98:	88 0f       	add	r24, r24
     f9a:	08 f0       	brcs	.+2      	; 0xf9e <__addsf3x+0xa2>
     f9c:	99 27       	eor	r25, r25
     f9e:	ee 0f       	add	r30, r30
     fa0:	97 95       	ror	r25
     fa2:	87 95       	ror	r24
     fa4:	08 95       	ret

00000fa6 <__divsf3>:
     fa6:	0e 94 e7 07 	call	0xfce	; 0xfce <__divsf3x>
     faa:	0c 94 23 09 	jmp	0x1246	; 0x1246 <__fp_round>
     fae:	0e 94 1c 09 	call	0x1238	; 0x1238 <__fp_pscB>
     fb2:	58 f0       	brcs	.+22     	; 0xfca <__divsf3+0x24>
     fb4:	0e 94 15 09 	call	0x122a	; 0x122a <__fp_pscA>
     fb8:	40 f0       	brcs	.+16     	; 0xfca <__divsf3+0x24>
     fba:	29 f4       	brne	.+10     	; 0xfc6 <__divsf3+0x20>
     fbc:	5f 3f       	cpi	r21, 0xFF	; 255
     fbe:	29 f0       	breq	.+10     	; 0xfca <__divsf3+0x24>
     fc0:	0c 94 fc 08 	jmp	0x11f8	; 0x11f8 <__fp_inf>
     fc4:	51 11       	cpse	r21, r1
     fc6:	0c 94 57 09 	jmp	0x12ae	; 0x12ae <__fp_szero>
     fca:	0c 94 02 09 	jmp	0x1204	; 0x1204 <__fp_nan>

00000fce <__divsf3x>:
     fce:	0e 94 34 09 	call	0x1268	; 0x1268 <__fp_split3>
     fd2:	68 f3       	brcs	.-38     	; 0xfae <__divsf3+0x8>

00000fd4 <__divsf3_pse>:
     fd4:	99 23       	and	r25, r25
     fd6:	b1 f3       	breq	.-20     	; 0xfc4 <__divsf3+0x1e>
     fd8:	55 23       	and	r21, r21
     fda:	91 f3       	breq	.-28     	; 0xfc0 <__divsf3+0x1a>
     fdc:	95 1b       	sub	r25, r21
     fde:	55 0b       	sbc	r21, r21
     fe0:	bb 27       	eor	r27, r27
     fe2:	aa 27       	eor	r26, r26
     fe4:	62 17       	cp	r22, r18
     fe6:	73 07       	cpc	r23, r19
     fe8:	84 07       	cpc	r24, r20
     fea:	38 f0       	brcs	.+14     	; 0xffa <__divsf3_pse+0x26>
     fec:	9f 5f       	subi	r25, 0xFF	; 255
     fee:	5f 4f       	sbci	r21, 0xFF	; 255
     ff0:	22 0f       	add	r18, r18
     ff2:	33 1f       	adc	r19, r19
     ff4:	44 1f       	adc	r20, r20
     ff6:	aa 1f       	adc	r26, r26
     ff8:	a9 f3       	breq	.-22     	; 0xfe4 <__divsf3_pse+0x10>
     ffa:	35 d0       	rcall	.+106    	; 0x1066 <__divsf3_pse+0x92>
     ffc:	0e 2e       	mov	r0, r30
     ffe:	3a f0       	brmi	.+14     	; 0x100e <__divsf3_pse+0x3a>
    1000:	e0 e8       	ldi	r30, 0x80	; 128
    1002:	32 d0       	rcall	.+100    	; 0x1068 <__divsf3_pse+0x94>
    1004:	91 50       	subi	r25, 0x01	; 1
    1006:	50 40       	sbci	r21, 0x00	; 0
    1008:	e6 95       	lsr	r30
    100a:	00 1c       	adc	r0, r0
    100c:	ca f7       	brpl	.-14     	; 0x1000 <__divsf3_pse+0x2c>
    100e:	2b d0       	rcall	.+86     	; 0x1066 <__divsf3_pse+0x92>
    1010:	fe 2f       	mov	r31, r30
    1012:	29 d0       	rcall	.+82     	; 0x1066 <__divsf3_pse+0x92>
    1014:	66 0f       	add	r22, r22
    1016:	77 1f       	adc	r23, r23
    1018:	88 1f       	adc	r24, r24
    101a:	bb 1f       	adc	r27, r27
    101c:	26 17       	cp	r18, r22
    101e:	37 07       	cpc	r19, r23
    1020:	48 07       	cpc	r20, r24
    1022:	ab 07       	cpc	r26, r27
    1024:	b0 e8       	ldi	r27, 0x80	; 128
    1026:	09 f0       	breq	.+2      	; 0x102a <__divsf3_pse+0x56>
    1028:	bb 0b       	sbc	r27, r27
    102a:	80 2d       	mov	r24, r0
    102c:	bf 01       	movw	r22, r30
    102e:	ff 27       	eor	r31, r31
    1030:	93 58       	subi	r25, 0x83	; 131
    1032:	5f 4f       	sbci	r21, 0xFF	; 255
    1034:	3a f0       	brmi	.+14     	; 0x1044 <__divsf3_pse+0x70>
    1036:	9e 3f       	cpi	r25, 0xFE	; 254
    1038:	51 05       	cpc	r21, r1
    103a:	78 f0       	brcs	.+30     	; 0x105a <__divsf3_pse+0x86>
    103c:	0c 94 fc 08 	jmp	0x11f8	; 0x11f8 <__fp_inf>
    1040:	0c 94 57 09 	jmp	0x12ae	; 0x12ae <__fp_szero>
    1044:	5f 3f       	cpi	r21, 0xFF	; 255
    1046:	e4 f3       	brlt	.-8      	; 0x1040 <__divsf3_pse+0x6c>
    1048:	98 3e       	cpi	r25, 0xE8	; 232
    104a:	d4 f3       	brlt	.-12     	; 0x1040 <__divsf3_pse+0x6c>
    104c:	86 95       	lsr	r24
    104e:	77 95       	ror	r23
    1050:	67 95       	ror	r22
    1052:	b7 95       	ror	r27
    1054:	f7 95       	ror	r31
    1056:	9f 5f       	subi	r25, 0xFF	; 255
    1058:	c9 f7       	brne	.-14     	; 0x104c <__divsf3_pse+0x78>
    105a:	88 0f       	add	r24, r24
    105c:	91 1d       	adc	r25, r1
    105e:	96 95       	lsr	r25
    1060:	87 95       	ror	r24
    1062:	97 f9       	bld	r25, 7
    1064:	08 95       	ret
    1066:	e1 e0       	ldi	r30, 0x01	; 1
    1068:	66 0f       	add	r22, r22
    106a:	77 1f       	adc	r23, r23
    106c:	88 1f       	adc	r24, r24
    106e:	bb 1f       	adc	r27, r27
    1070:	62 17       	cp	r22, r18
    1072:	73 07       	cpc	r23, r19
    1074:	84 07       	cpc	r24, r20
    1076:	ba 07       	cpc	r27, r26
    1078:	20 f0       	brcs	.+8      	; 0x1082 <__divsf3_pse+0xae>
    107a:	62 1b       	sub	r22, r18
    107c:	73 0b       	sbc	r23, r19
    107e:	84 0b       	sbc	r24, r20
    1080:	ba 0b       	sbc	r27, r26
    1082:	ee 1f       	adc	r30, r30
    1084:	88 f7       	brcc	.-30     	; 0x1068 <__divsf3_pse+0x94>
    1086:	e0 95       	com	r30
    1088:	08 95       	ret

0000108a <__fixsfsi>:
    108a:	0e 94 4c 08 	call	0x1098	; 0x1098 <__fixunssfsi>
    108e:	68 94       	set
    1090:	b1 11       	cpse	r27, r1
    1092:	0c 94 57 09 	jmp	0x12ae	; 0x12ae <__fp_szero>
    1096:	08 95       	ret

00001098 <__fixunssfsi>:
    1098:	0e 94 3c 09 	call	0x1278	; 0x1278 <__fp_splitA>
    109c:	88 f0       	brcs	.+34     	; 0x10c0 <__fixunssfsi+0x28>
    109e:	9f 57       	subi	r25, 0x7F	; 127
    10a0:	98 f0       	brcs	.+38     	; 0x10c8 <__fixunssfsi+0x30>
    10a2:	b9 2f       	mov	r27, r25
    10a4:	99 27       	eor	r25, r25
    10a6:	b7 51       	subi	r27, 0x17	; 23
    10a8:	b0 f0       	brcs	.+44     	; 0x10d6 <__fixunssfsi+0x3e>
    10aa:	e1 f0       	breq	.+56     	; 0x10e4 <__fixunssfsi+0x4c>
    10ac:	66 0f       	add	r22, r22
    10ae:	77 1f       	adc	r23, r23
    10b0:	88 1f       	adc	r24, r24
    10b2:	99 1f       	adc	r25, r25
    10b4:	1a f0       	brmi	.+6      	; 0x10bc <__fixunssfsi+0x24>
    10b6:	ba 95       	dec	r27
    10b8:	c9 f7       	brne	.-14     	; 0x10ac <__fixunssfsi+0x14>
    10ba:	14 c0       	rjmp	.+40     	; 0x10e4 <__fixunssfsi+0x4c>
    10bc:	b1 30       	cpi	r27, 0x01	; 1
    10be:	91 f0       	breq	.+36     	; 0x10e4 <__fixunssfsi+0x4c>
    10c0:	0e 94 56 09 	call	0x12ac	; 0x12ac <__fp_zero>
    10c4:	b1 e0       	ldi	r27, 0x01	; 1
    10c6:	08 95       	ret
    10c8:	0c 94 56 09 	jmp	0x12ac	; 0x12ac <__fp_zero>
    10cc:	67 2f       	mov	r22, r23
    10ce:	78 2f       	mov	r23, r24
    10d0:	88 27       	eor	r24, r24
    10d2:	b8 5f       	subi	r27, 0xF8	; 248
    10d4:	39 f0       	breq	.+14     	; 0x10e4 <__fixunssfsi+0x4c>
    10d6:	b9 3f       	cpi	r27, 0xF9	; 249
    10d8:	cc f3       	brlt	.-14     	; 0x10cc <__fixunssfsi+0x34>
    10da:	86 95       	lsr	r24
    10dc:	77 95       	ror	r23
    10de:	67 95       	ror	r22
    10e0:	b3 95       	inc	r27
    10e2:	d9 f7       	brne	.-10     	; 0x10da <__fixunssfsi+0x42>
    10e4:	3e f4       	brtc	.+14     	; 0x10f4 <__fixunssfsi+0x5c>
    10e6:	90 95       	com	r25
    10e8:	80 95       	com	r24
    10ea:	70 95       	com	r23
    10ec:	61 95       	neg	r22
    10ee:	7f 4f       	sbci	r23, 0xFF	; 255
    10f0:	8f 4f       	sbci	r24, 0xFF	; 255
    10f2:	9f 4f       	sbci	r25, 0xFF	; 255
    10f4:	08 95       	ret

000010f6 <__floatdisf>:
    10f6:	97 fb       	bst	r25, 7
    10f8:	16 f4       	brtc	.+4      	; 0x10fe <__floatdisf+0x8>
    10fa:	0e 94 05 09 	call	0x120a	; 0x120a <__fp_negdi>
    10fe:	0c 94 bf 08 	jmp	0x117e	; 0x117e <__fp_di2sf>

00001102 <__floatunsisf>:
    1102:	e8 94       	clt
    1104:	09 c0       	rjmp	.+18     	; 0x1118 <__floatsisf+0x12>

00001106 <__floatsisf>:
    1106:	97 fb       	bst	r25, 7
    1108:	3e f4       	brtc	.+14     	; 0x1118 <__floatsisf+0x12>
    110a:	90 95       	com	r25
    110c:	80 95       	com	r24
    110e:	70 95       	com	r23
    1110:	61 95       	neg	r22
    1112:	7f 4f       	sbci	r23, 0xFF	; 255
    1114:	8f 4f       	sbci	r24, 0xFF	; 255
    1116:	9f 4f       	sbci	r25, 0xFF	; 255
    1118:	99 23       	and	r25, r25
    111a:	a9 f0       	breq	.+42     	; 0x1146 <__floatsisf+0x40>
    111c:	f9 2f       	mov	r31, r25
    111e:	96 e9       	ldi	r25, 0x96	; 150
    1120:	bb 27       	eor	r27, r27
    1122:	93 95       	inc	r25
    1124:	f6 95       	lsr	r31
    1126:	87 95       	ror	r24
    1128:	77 95       	ror	r23
    112a:	67 95       	ror	r22
    112c:	b7 95       	ror	r27
    112e:	f1 11       	cpse	r31, r1
    1130:	f8 cf       	rjmp	.-16     	; 0x1122 <__floatsisf+0x1c>
    1132:	fa f4       	brpl	.+62     	; 0x1172 <__floatsisf+0x6c>
    1134:	bb 0f       	add	r27, r27
    1136:	11 f4       	brne	.+4      	; 0x113c <__floatsisf+0x36>
    1138:	60 ff       	sbrs	r22, 0
    113a:	1b c0       	rjmp	.+54     	; 0x1172 <__floatsisf+0x6c>
    113c:	6f 5f       	subi	r22, 0xFF	; 255
    113e:	7f 4f       	sbci	r23, 0xFF	; 255
    1140:	8f 4f       	sbci	r24, 0xFF	; 255
    1142:	9f 4f       	sbci	r25, 0xFF	; 255
    1144:	16 c0       	rjmp	.+44     	; 0x1172 <__floatsisf+0x6c>
    1146:	88 23       	and	r24, r24
    1148:	11 f0       	breq	.+4      	; 0x114e <__floatsisf+0x48>
    114a:	96 e9       	ldi	r25, 0x96	; 150
    114c:	11 c0       	rjmp	.+34     	; 0x1170 <__floatsisf+0x6a>
    114e:	77 23       	and	r23, r23
    1150:	21 f0       	breq	.+8      	; 0x115a <__floatsisf+0x54>
    1152:	9e e8       	ldi	r25, 0x8E	; 142
    1154:	87 2f       	mov	r24, r23
    1156:	76 2f       	mov	r23, r22
    1158:	05 c0       	rjmp	.+10     	; 0x1164 <__floatsisf+0x5e>
    115a:	66 23       	and	r22, r22
    115c:	71 f0       	breq	.+28     	; 0x117a <__floatsisf+0x74>
    115e:	96 e8       	ldi	r25, 0x86	; 134
    1160:	86 2f       	mov	r24, r22
    1162:	70 e0       	ldi	r23, 0x00	; 0
    1164:	60 e0       	ldi	r22, 0x00	; 0
    1166:	2a f0       	brmi	.+10     	; 0x1172 <__floatsisf+0x6c>
    1168:	9a 95       	dec	r25
    116a:	66 0f       	add	r22, r22
    116c:	77 1f       	adc	r23, r23
    116e:	88 1f       	adc	r24, r24
    1170:	da f7       	brpl	.-10     	; 0x1168 <__floatsisf+0x62>
    1172:	88 0f       	add	r24, r24
    1174:	96 95       	lsr	r25
    1176:	87 95       	ror	r24
    1178:	97 f9       	bld	r25, 7
    117a:	08 95       	ret

0000117c <__floatundisf>:
    117c:	e8 94       	clt

0000117e <__fp_di2sf>:
    117e:	f9 2f       	mov	r31, r25
    1180:	96 eb       	ldi	r25, 0xB6	; 182
    1182:	ff 23       	and	r31, r31
    1184:	81 f0       	breq	.+32     	; 0x11a6 <__fp_di2sf+0x28>
    1186:	12 16       	cp	r1, r18
    1188:	13 06       	cpc	r1, r19
    118a:	14 06       	cpc	r1, r20
    118c:	44 0b       	sbc	r20, r20
    118e:	93 95       	inc	r25
    1190:	f6 95       	lsr	r31
    1192:	87 95       	ror	r24
    1194:	77 95       	ror	r23
    1196:	67 95       	ror	r22
    1198:	57 95       	ror	r21
    119a:	40 40       	sbci	r20, 0x00	; 0
    119c:	ff 23       	and	r31, r31
    119e:	b9 f7       	brne	.-18     	; 0x118e <__fp_di2sf+0x10>
    11a0:	1b c0       	rjmp	.+54     	; 0x11d8 <__fp_di2sf+0x5a>
    11a2:	99 27       	eor	r25, r25
    11a4:	08 95       	ret
    11a6:	88 23       	and	r24, r24
    11a8:	51 f4       	brne	.+20     	; 0x11be <__fp_di2sf+0x40>
    11aa:	98 50       	subi	r25, 0x08	; 8
    11ac:	d2 f7       	brpl	.-12     	; 0x11a2 <__fp_di2sf+0x24>
    11ae:	87 2b       	or	r24, r23
    11b0:	76 2f       	mov	r23, r22
    11b2:	65 2f       	mov	r22, r21
    11b4:	54 2f       	mov	r21, r20
    11b6:	43 2f       	mov	r20, r19
    11b8:	32 2f       	mov	r19, r18
    11ba:	20 e0       	ldi	r18, 0x00	; 0
    11bc:	b1 f3       	breq	.-20     	; 0x11aa <__fp_di2sf+0x2c>
    11be:	12 16       	cp	r1, r18
    11c0:	13 06       	cpc	r1, r19
    11c2:	14 06       	cpc	r1, r20
    11c4:	44 0b       	sbc	r20, r20
    11c6:	88 23       	and	r24, r24
    11c8:	3a f0       	brmi	.+14     	; 0x11d8 <__fp_di2sf+0x5a>
    11ca:	9a 95       	dec	r25
    11cc:	44 0f       	add	r20, r20
    11ce:	55 1f       	adc	r21, r21
    11d0:	66 1f       	adc	r22, r22
    11d2:	77 1f       	adc	r23, r23
    11d4:	88 1f       	adc	r24, r24
    11d6:	ca f7       	brpl	.-14     	; 0x11ca <__fp_di2sf+0x4c>
    11d8:	55 23       	and	r21, r21
    11da:	4a f4       	brpl	.+18     	; 0x11ee <__fp_di2sf+0x70>
    11dc:	44 0f       	add	r20, r20
    11de:	55 1f       	adc	r21, r21
    11e0:	11 f4       	brne	.+4      	; 0x11e6 <__fp_di2sf+0x68>
    11e2:	60 ff       	sbrs	r22, 0
    11e4:	04 c0       	rjmp	.+8      	; 0x11ee <__fp_di2sf+0x70>
    11e6:	6f 5f       	subi	r22, 0xFF	; 255
    11e8:	7f 4f       	sbci	r23, 0xFF	; 255
    11ea:	8f 4f       	sbci	r24, 0xFF	; 255
    11ec:	9f 4f       	sbci	r25, 0xFF	; 255
    11ee:	88 0f       	add	r24, r24
    11f0:	96 95       	lsr	r25
    11f2:	87 95       	ror	r24
    11f4:	97 f9       	bld	r25, 7
    11f6:	08 95       	ret

000011f8 <__fp_inf>:
    11f8:	97 f9       	bld	r25, 7
    11fa:	9f 67       	ori	r25, 0x7F	; 127
    11fc:	80 e8       	ldi	r24, 0x80	; 128
    11fe:	70 e0       	ldi	r23, 0x00	; 0
    1200:	60 e0       	ldi	r22, 0x00	; 0
    1202:	08 95       	ret

00001204 <__fp_nan>:
    1204:	9f ef       	ldi	r25, 0xFF	; 255
    1206:	80 ec       	ldi	r24, 0xC0	; 192
    1208:	08 95       	ret

0000120a <__fp_negdi>:
    120a:	90 95       	com	r25
    120c:	80 95       	com	r24
    120e:	70 95       	com	r23
    1210:	60 95       	com	r22
    1212:	50 95       	com	r21
    1214:	40 95       	com	r20
    1216:	30 95       	com	r19
    1218:	21 95       	neg	r18
    121a:	3f 4f       	sbci	r19, 0xFF	; 255
    121c:	4f 4f       	sbci	r20, 0xFF	; 255
    121e:	5f 4f       	sbci	r21, 0xFF	; 255
    1220:	6f 4f       	sbci	r22, 0xFF	; 255
    1222:	7f 4f       	sbci	r23, 0xFF	; 255
    1224:	8f 4f       	sbci	r24, 0xFF	; 255
    1226:	9f 4f       	sbci	r25, 0xFF	; 255
    1228:	08 95       	ret

0000122a <__fp_pscA>:
    122a:	00 24       	eor	r0, r0
    122c:	0a 94       	dec	r0
    122e:	16 16       	cp	r1, r22
    1230:	17 06       	cpc	r1, r23
    1232:	18 06       	cpc	r1, r24
    1234:	09 06       	cpc	r0, r25
    1236:	08 95       	ret

00001238 <__fp_pscB>:
    1238:	00 24       	eor	r0, r0
    123a:	0a 94       	dec	r0
    123c:	12 16       	cp	r1, r18
    123e:	13 06       	cpc	r1, r19
    1240:	14 06       	cpc	r1, r20
    1242:	05 06       	cpc	r0, r21
    1244:	08 95       	ret

00001246 <__fp_round>:
    1246:	09 2e       	mov	r0, r25
    1248:	03 94       	inc	r0
    124a:	00 0c       	add	r0, r0
    124c:	11 f4       	brne	.+4      	; 0x1252 <__fp_round+0xc>
    124e:	88 23       	and	r24, r24
    1250:	52 f0       	brmi	.+20     	; 0x1266 <__fp_round+0x20>
    1252:	bb 0f       	add	r27, r27
    1254:	40 f4       	brcc	.+16     	; 0x1266 <__fp_round+0x20>
    1256:	bf 2b       	or	r27, r31
    1258:	11 f4       	brne	.+4      	; 0x125e <__fp_round+0x18>
    125a:	60 ff       	sbrs	r22, 0
    125c:	04 c0       	rjmp	.+8      	; 0x1266 <__fp_round+0x20>
    125e:	6f 5f       	subi	r22, 0xFF	; 255
    1260:	7f 4f       	sbci	r23, 0xFF	; 255
    1262:	8f 4f       	sbci	r24, 0xFF	; 255
    1264:	9f 4f       	sbci	r25, 0xFF	; 255
    1266:	08 95       	ret

00001268 <__fp_split3>:
    1268:	57 fd       	sbrc	r21, 7
    126a:	90 58       	subi	r25, 0x80	; 128
    126c:	44 0f       	add	r20, r20
    126e:	55 1f       	adc	r21, r21
    1270:	59 f0       	breq	.+22     	; 0x1288 <__fp_splitA+0x10>
    1272:	5f 3f       	cpi	r21, 0xFF	; 255
    1274:	71 f0       	breq	.+28     	; 0x1292 <__fp_splitA+0x1a>
    1276:	47 95       	ror	r20

00001278 <__fp_splitA>:
    1278:	88 0f       	add	r24, r24
    127a:	97 fb       	bst	r25, 7
    127c:	99 1f       	adc	r25, r25
    127e:	61 f0       	breq	.+24     	; 0x1298 <__fp_splitA+0x20>
    1280:	9f 3f       	cpi	r25, 0xFF	; 255
    1282:	79 f0       	breq	.+30     	; 0x12a2 <__fp_splitA+0x2a>
    1284:	87 95       	ror	r24
    1286:	08 95       	ret
    1288:	12 16       	cp	r1, r18
    128a:	13 06       	cpc	r1, r19
    128c:	14 06       	cpc	r1, r20
    128e:	55 1f       	adc	r21, r21
    1290:	f2 cf       	rjmp	.-28     	; 0x1276 <__fp_split3+0xe>
    1292:	46 95       	lsr	r20
    1294:	f1 df       	rcall	.-30     	; 0x1278 <__fp_splitA>
    1296:	08 c0       	rjmp	.+16     	; 0x12a8 <__fp_splitA+0x30>
    1298:	16 16       	cp	r1, r22
    129a:	17 06       	cpc	r1, r23
    129c:	18 06       	cpc	r1, r24
    129e:	99 1f       	adc	r25, r25
    12a0:	f1 cf       	rjmp	.-30     	; 0x1284 <__fp_splitA+0xc>
    12a2:	86 95       	lsr	r24
    12a4:	71 05       	cpc	r23, r1
    12a6:	61 05       	cpc	r22, r1
    12a8:	08 94       	sec
    12aa:	08 95       	ret

000012ac <__fp_zero>:
    12ac:	e8 94       	clt

000012ae <__fp_szero>:
    12ae:	bb 27       	eor	r27, r27
    12b0:	66 27       	eor	r22, r22
    12b2:	77 27       	eor	r23, r23
    12b4:	cb 01       	movw	r24, r22
    12b6:	97 f9       	bld	r25, 7
    12b8:	08 95       	ret

000012ba <__mulsf3>:
    12ba:	0e 94 70 09 	call	0x12e0	; 0x12e0 <__mulsf3x>
    12be:	0c 94 23 09 	jmp	0x1246	; 0x1246 <__fp_round>
    12c2:	0e 94 15 09 	call	0x122a	; 0x122a <__fp_pscA>
    12c6:	38 f0       	brcs	.+14     	; 0x12d6 <__mulsf3+0x1c>
    12c8:	0e 94 1c 09 	call	0x1238	; 0x1238 <__fp_pscB>
    12cc:	20 f0       	brcs	.+8      	; 0x12d6 <__mulsf3+0x1c>
    12ce:	95 23       	and	r25, r21
    12d0:	11 f0       	breq	.+4      	; 0x12d6 <__mulsf3+0x1c>
    12d2:	0c 94 fc 08 	jmp	0x11f8	; 0x11f8 <__fp_inf>
    12d6:	0c 94 02 09 	jmp	0x1204	; 0x1204 <__fp_nan>
    12da:	11 24       	eor	r1, r1
    12dc:	0c 94 57 09 	jmp	0x12ae	; 0x12ae <__fp_szero>

000012e0 <__mulsf3x>:
    12e0:	0e 94 34 09 	call	0x1268	; 0x1268 <__fp_split3>
    12e4:	70 f3       	brcs	.-36     	; 0x12c2 <__mulsf3+0x8>

000012e6 <__mulsf3_pse>:
    12e6:	95 9f       	mul	r25, r21
    12e8:	c1 f3       	breq	.-16     	; 0x12da <__mulsf3+0x20>
    12ea:	95 0f       	add	r25, r21
    12ec:	50 e0       	ldi	r21, 0x00	; 0
    12ee:	55 1f       	adc	r21, r21
    12f0:	62 9f       	mul	r22, r18
    12f2:	f0 01       	movw	r30, r0
    12f4:	72 9f       	mul	r23, r18
    12f6:	bb 27       	eor	r27, r27
    12f8:	f0 0d       	add	r31, r0
    12fa:	b1 1d       	adc	r27, r1
    12fc:	63 9f       	mul	r22, r19
    12fe:	aa 27       	eor	r26, r26
    1300:	f0 0d       	add	r31, r0
    1302:	b1 1d       	adc	r27, r1
    1304:	aa 1f       	adc	r26, r26
    1306:	64 9f       	mul	r22, r20
    1308:	66 27       	eor	r22, r22
    130a:	b0 0d       	add	r27, r0
    130c:	a1 1d       	adc	r26, r1
    130e:	66 1f       	adc	r22, r22
    1310:	82 9f       	mul	r24, r18
    1312:	22 27       	eor	r18, r18
    1314:	b0 0d       	add	r27, r0
    1316:	a1 1d       	adc	r26, r1
    1318:	62 1f       	adc	r22, r18
    131a:	73 9f       	mul	r23, r19
    131c:	b0 0d       	add	r27, r0
    131e:	a1 1d       	adc	r26, r1
    1320:	62 1f       	adc	r22, r18
    1322:	83 9f       	mul	r24, r19
    1324:	a0 0d       	add	r26, r0
    1326:	61 1d       	adc	r22, r1
    1328:	22 1f       	adc	r18, r18
    132a:	74 9f       	mul	r23, r20
    132c:	33 27       	eor	r19, r19
    132e:	a0 0d       	add	r26, r0
    1330:	61 1d       	adc	r22, r1
    1332:	23 1f       	adc	r18, r19
    1334:	84 9f       	mul	r24, r20
    1336:	60 0d       	add	r22, r0
    1338:	21 1d       	adc	r18, r1
    133a:	82 2f       	mov	r24, r18
    133c:	76 2f       	mov	r23, r22
    133e:	6a 2f       	mov	r22, r26
    1340:	11 24       	eor	r1, r1
    1342:	9f 57       	subi	r25, 0x7F	; 127
    1344:	50 40       	sbci	r21, 0x00	; 0
    1346:	9a f0       	brmi	.+38     	; 0x136e <__mulsf3_pse+0x88>
    1348:	f1 f0       	breq	.+60     	; 0x1386 <__mulsf3_pse+0xa0>
    134a:	88 23       	and	r24, r24
    134c:	4a f0       	brmi	.+18     	; 0x1360 <__mulsf3_pse+0x7a>
    134e:	ee 0f       	add	r30, r30
    1350:	ff 1f       	adc	r31, r31
    1352:	bb 1f       	adc	r27, r27
    1354:	66 1f       	adc	r22, r22
    1356:	77 1f       	adc	r23, r23
    1358:	88 1f       	adc	r24, r24
    135a:	91 50       	subi	r25, 0x01	; 1
    135c:	50 40       	sbci	r21, 0x00	; 0
    135e:	a9 f7       	brne	.-22     	; 0x134a <__mulsf3_pse+0x64>
    1360:	9e 3f       	cpi	r25, 0xFE	; 254
    1362:	51 05       	cpc	r21, r1
    1364:	80 f0       	brcs	.+32     	; 0x1386 <__mulsf3_pse+0xa0>
    1366:	0c 94 fc 08 	jmp	0x11f8	; 0x11f8 <__fp_inf>
    136a:	0c 94 57 09 	jmp	0x12ae	; 0x12ae <__fp_szero>
    136e:	5f 3f       	cpi	r21, 0xFF	; 255
    1370:	e4 f3       	brlt	.-8      	; 0x136a <__mulsf3_pse+0x84>
    1372:	98 3e       	cpi	r25, 0xE8	; 232
    1374:	d4 f3       	brlt	.-12     	; 0x136a <__mulsf3_pse+0x84>
    1376:	86 95       	lsr	r24
    1378:	77 95       	ror	r23
    137a:	67 95       	ror	r22
    137c:	b7 95       	ror	r27
    137e:	f7 95       	ror	r31
    1380:	e7 95       	ror	r30
    1382:	9f 5f       	subi	r25, 0xFF	; 255
    1384:	c1 f7       	brne	.-16     	; 0x1376 <__mulsf3_pse+0x90>
    1386:	fe 2b       	or	r31, r30
    1388:	88 0f       	add	r24, r24
    138a:	91 1d       	adc	r25, r1
    138c:	96 95       	lsr	r25
    138e:	87 95       	ror	r24
    1390:	97 f9       	bld	r25, 7
    1392:	08 95       	ret

00001394 <round>:
    1394:	0e 94 3c 09 	call	0x1278	; 0x1278 <__fp_splitA>
    1398:	e8 f0       	brcs	.+58     	; 0x13d4 <round+0x40>
    139a:	9e 37       	cpi	r25, 0x7E	; 126
    139c:	e8 f0       	brcs	.+58     	; 0x13d8 <round+0x44>
    139e:	96 39       	cpi	r25, 0x96	; 150
    13a0:	b8 f4       	brcc	.+46     	; 0x13d0 <round+0x3c>
    13a2:	9e 38       	cpi	r25, 0x8E	; 142
    13a4:	48 f4       	brcc	.+18     	; 0x13b8 <round+0x24>
    13a6:	67 2f       	mov	r22, r23
    13a8:	78 2f       	mov	r23, r24
    13aa:	88 27       	eor	r24, r24
    13ac:	98 5f       	subi	r25, 0xF8	; 248
    13ae:	f9 cf       	rjmp	.-14     	; 0x13a2 <round+0xe>
    13b0:	86 95       	lsr	r24
    13b2:	77 95       	ror	r23
    13b4:	67 95       	ror	r22
    13b6:	93 95       	inc	r25
    13b8:	95 39       	cpi	r25, 0x95	; 149
    13ba:	d0 f3       	brcs	.-12     	; 0x13b0 <round+0x1c>
    13bc:	b6 2f       	mov	r27, r22
    13be:	b1 70       	andi	r27, 0x01	; 1
    13c0:	6b 0f       	add	r22, r27
    13c2:	71 1d       	adc	r23, r1
    13c4:	81 1d       	adc	r24, r1
    13c6:	20 f4       	brcc	.+8      	; 0x13d0 <round+0x3c>
    13c8:	87 95       	ror	r24
    13ca:	77 95       	ror	r23
    13cc:	67 95       	ror	r22
    13ce:	93 95       	inc	r25
    13d0:	0c 94 ee 09 	jmp	0x13dc	; 0x13dc <__fp_mintl>
    13d4:	0c 94 09 0a 	jmp	0x1412	; 0x1412 <__fp_mpack>
    13d8:	0c 94 57 09 	jmp	0x12ae	; 0x12ae <__fp_szero>

000013dc <__fp_mintl>:
    13dc:	88 23       	and	r24, r24
    13de:	71 f4       	brne	.+28     	; 0x13fc <__fp_mintl+0x20>
    13e0:	77 23       	and	r23, r23
    13e2:	21 f0       	breq	.+8      	; 0x13ec <__fp_mintl+0x10>
    13e4:	98 50       	subi	r25, 0x08	; 8
    13e6:	87 2b       	or	r24, r23
    13e8:	76 2f       	mov	r23, r22
    13ea:	07 c0       	rjmp	.+14     	; 0x13fa <__fp_mintl+0x1e>
    13ec:	66 23       	and	r22, r22
    13ee:	11 f4       	brne	.+4      	; 0x13f4 <__fp_mintl+0x18>
    13f0:	99 27       	eor	r25, r25
    13f2:	0d c0       	rjmp	.+26     	; 0x140e <__fp_mintl+0x32>
    13f4:	90 51       	subi	r25, 0x10	; 16
    13f6:	86 2b       	or	r24, r22
    13f8:	70 e0       	ldi	r23, 0x00	; 0
    13fa:	60 e0       	ldi	r22, 0x00	; 0
    13fc:	2a f0       	brmi	.+10     	; 0x1408 <__fp_mintl+0x2c>
    13fe:	9a 95       	dec	r25
    1400:	66 0f       	add	r22, r22
    1402:	77 1f       	adc	r23, r23
    1404:	88 1f       	adc	r24, r24
    1406:	da f7       	brpl	.-10     	; 0x13fe <__fp_mintl+0x22>
    1408:	88 0f       	add	r24, r24
    140a:	96 95       	lsr	r25
    140c:	87 95       	ror	r24
    140e:	97 f9       	bld	r25, 7
    1410:	08 95       	ret

00001412 <__fp_mpack>:
    1412:	9f 3f       	cpi	r25, 0xFF	; 255
    1414:	31 f0       	breq	.+12     	; 0x1422 <__fp_mpack_finite+0xc>

00001416 <__fp_mpack_finite>:
    1416:	91 50       	subi	r25, 0x01	; 1
    1418:	20 f4       	brcc	.+8      	; 0x1422 <__fp_mpack_finite+0xc>
    141a:	87 95       	ror	r24
    141c:	77 95       	ror	r23
    141e:	67 95       	ror	r22
    1420:	b7 95       	ror	r27
    1422:	88 0f       	add	r24, r24
    1424:	91 1d       	adc	r25, r1
    1426:	96 95       	lsr	r25
    1428:	87 95       	ror	r24
    142a:	97 f9       	bld	r25, 7
    142c:	08 95       	ret

0000142e <__mulsi3>:
    142e:	db 01       	movw	r26, r22
    1430:	8f 93       	push	r24
    1432:	9f 93       	push	r25
    1434:	0e 94 3b 0a 	call	0x1476	; 0x1476 <__muluhisi3>
    1438:	bf 91       	pop	r27
    143a:	af 91       	pop	r26
    143c:	a2 9f       	mul	r26, r18
    143e:	80 0d       	add	r24, r0
    1440:	91 1d       	adc	r25, r1
    1442:	a3 9f       	mul	r26, r19
    1444:	90 0d       	add	r25, r0
    1446:	b2 9f       	mul	r27, r18
    1448:	90 0d       	add	r25, r0
    144a:	11 24       	eor	r1, r1
    144c:	08 95       	ret

0000144e <__divmodhi4>:
    144e:	97 fb       	bst	r25, 7
    1450:	07 2e       	mov	r0, r23
    1452:	16 f4       	brtc	.+4      	; 0x1458 <__divmodhi4+0xa>
    1454:	00 94       	com	r0
    1456:	07 d0       	rcall	.+14     	; 0x1466 <__divmodhi4_neg1>
    1458:	77 fd       	sbrc	r23, 7
    145a:	09 d0       	rcall	.+18     	; 0x146e <__divmodhi4_neg2>
    145c:	0e 94 d3 0b 	call	0x17a6	; 0x17a6 <__udivmodhi4>
    1460:	07 fc       	sbrc	r0, 7
    1462:	05 d0       	rcall	.+10     	; 0x146e <__divmodhi4_neg2>
    1464:	3e f4       	brtc	.+14     	; 0x1474 <__divmodhi4_exit>

00001466 <__divmodhi4_neg1>:
    1466:	90 95       	com	r25
    1468:	81 95       	neg	r24
    146a:	9f 4f       	sbci	r25, 0xFF	; 255
    146c:	08 95       	ret

0000146e <__divmodhi4_neg2>:
    146e:	70 95       	com	r23
    1470:	61 95       	neg	r22
    1472:	7f 4f       	sbci	r23, 0xFF	; 255

00001474 <__divmodhi4_exit>:
    1474:	08 95       	ret

00001476 <__muluhisi3>:
    1476:	0e 94 e7 0b 	call	0x17ce	; 0x17ce <__umulhisi3>
    147a:	a5 9f       	mul	r26, r21
    147c:	90 0d       	add	r25, r0
    147e:	b4 9f       	mul	r27, r20
    1480:	90 0d       	add	r25, r0
    1482:	a4 9f       	mul	r26, r20
    1484:	80 0d       	add	r24, r0
    1486:	91 1d       	adc	r25, r1
    1488:	11 24       	eor	r1, r1
    148a:	08 95       	ret

0000148c <__mulshisi3>:
    148c:	b7 ff       	sbrs	r27, 7
    148e:	0c 94 3b 0a 	jmp	0x1476	; 0x1476 <__muluhisi3>

00001492 <__mulohisi3>:
    1492:	0e 94 3b 0a 	call	0x1476	; 0x1476 <__muluhisi3>
    1496:	82 1b       	sub	r24, r18
    1498:	93 0b       	sbc	r25, r19
    149a:	08 95       	ret

0000149c <__muldi3>:
    149c:	df 93       	push	r29
    149e:	cf 93       	push	r28
    14a0:	1f 93       	push	r17
    14a2:	0f 93       	push	r16
    14a4:	9a 9d       	mul	r25, r10
    14a6:	f0 2d       	mov	r31, r0
    14a8:	21 9f       	mul	r18, r17
    14aa:	f0 0d       	add	r31, r0
    14ac:	8b 9d       	mul	r24, r11
    14ae:	f0 0d       	add	r31, r0
    14b0:	8a 9d       	mul	r24, r10
    14b2:	e0 2d       	mov	r30, r0
    14b4:	f1 0d       	add	r31, r1
    14b6:	03 9f       	mul	r16, r19
    14b8:	f0 0d       	add	r31, r0
    14ba:	02 9f       	mul	r16, r18
    14bc:	e0 0d       	add	r30, r0
    14be:	f1 1d       	adc	r31, r1
    14c0:	4e 9d       	mul	r20, r14
    14c2:	e0 0d       	add	r30, r0
    14c4:	f1 1d       	adc	r31, r1
    14c6:	5e 9d       	mul	r21, r14
    14c8:	f0 0d       	add	r31, r0
    14ca:	4f 9d       	mul	r20, r15
    14cc:	f0 0d       	add	r31, r0
    14ce:	7f 93       	push	r23
    14d0:	6f 93       	push	r22
    14d2:	bf 92       	push	r11
    14d4:	af 92       	push	r10
    14d6:	5f 93       	push	r21
    14d8:	4f 93       	push	r20
    14da:	d5 01       	movw	r26, r10
    14dc:	0e 94 e7 0b 	call	0x17ce	; 0x17ce <__umulhisi3>
    14e0:	8b 01       	movw	r16, r22
    14e2:	ac 01       	movw	r20, r24
    14e4:	d7 01       	movw	r26, r14
    14e6:	0e 94 e7 0b 	call	0x17ce	; 0x17ce <__umulhisi3>
    14ea:	eb 01       	movw	r28, r22
    14ec:	e8 0f       	add	r30, r24
    14ee:	f9 1f       	adc	r31, r25
    14f0:	d6 01       	movw	r26, r12
    14f2:	0e 94 9e 0a 	call	0x153c	; 0x153c <__muldi3_6>
    14f6:	2f 91       	pop	r18
    14f8:	3f 91       	pop	r19
    14fa:	d6 01       	movw	r26, r12
    14fc:	0e 94 e7 0b 	call	0x17ce	; 0x17ce <__umulhisi3>
    1500:	c6 0f       	add	r28, r22
    1502:	d7 1f       	adc	r29, r23
    1504:	e8 1f       	adc	r30, r24
    1506:	f9 1f       	adc	r31, r25
    1508:	af 91       	pop	r26
    150a:	bf 91       	pop	r27
    150c:	0e 94 9e 0a 	call	0x153c	; 0x153c <__muldi3_6>
    1510:	2f 91       	pop	r18
    1512:	3f 91       	pop	r19
    1514:	0e 94 e7 0b 	call	0x17ce	; 0x17ce <__umulhisi3>
    1518:	c6 0f       	add	r28, r22
    151a:	d7 1f       	adc	r29, r23
    151c:	e8 1f       	adc	r30, r24
    151e:	f9 1f       	adc	r31, r25
    1520:	d6 01       	movw	r26, r12
    1522:	0e 94 e7 0b 	call	0x17ce	; 0x17ce <__umulhisi3>
    1526:	e6 0f       	add	r30, r22
    1528:	f7 1f       	adc	r31, r23
    152a:	98 01       	movw	r18, r16
    152c:	be 01       	movw	r22, r28
    152e:	cf 01       	movw	r24, r30
    1530:	11 24       	eor	r1, r1
    1532:	0f 91       	pop	r16
    1534:	1f 91       	pop	r17
    1536:	cf 91       	pop	r28
    1538:	df 91       	pop	r29
    153a:	08 95       	ret

0000153c <__muldi3_6>:
    153c:	0e 94 e7 0b 	call	0x17ce	; 0x17ce <__umulhisi3>
    1540:	46 0f       	add	r20, r22
    1542:	57 1f       	adc	r21, r23
    1544:	c8 1f       	adc	r28, r24
    1546:	d9 1f       	adc	r29, r25
    1548:	08 f4       	brcc	.+2      	; 0x154c <__muldi3_6+0x10>
    154a:	31 96       	adiw	r30, 0x01	; 1
    154c:	08 95       	ret

0000154e <__moddi3>:
    154e:	68 94       	set
    1550:	01 c0       	rjmp	.+2      	; 0x1554 <__divdi3_moddi3>

00001552 <__divdi3>:
    1552:	e8 94       	clt

00001554 <__divdi3_moddi3>:
    1554:	f9 2f       	mov	r31, r25
    1556:	f1 2b       	or	r31, r17
    1558:	12 f0       	brmi	.+4      	; 0x155e <__divdi3_moddi3+0xa>
    155a:	0c 94 db 0a 	jmp	0x15b6	; 0x15b6 <__udivdi3_umoddi3>
    155e:	a0 e0       	ldi	r26, 0x00	; 0
    1560:	b0 e0       	ldi	r27, 0x00	; 0
    1562:	e5 eb       	ldi	r30, 0xB5	; 181
    1564:	fa e0       	ldi	r31, 0x0A	; 10
    1566:	0c 94 4d 0b 	jmp	0x169a	; 0x169a <__prologue_saves__+0xc>
    156a:	09 2e       	mov	r0, r25
    156c:	05 94       	asr	r0
    156e:	22 f4       	brpl	.+8      	; 0x1578 <__divdi3_moddi3+0x24>
    1570:	0e 94 37 0b 	call	0x166e	; 0x166e <__negdi2>
    1574:	11 23       	and	r17, r17
    1576:	92 f4       	brpl	.+36     	; 0x159c <__divdi3_moddi3+0x48>
    1578:	f0 e8       	ldi	r31, 0x80	; 128
    157a:	0f 26       	eor	r0, r31
    157c:	ff ef       	ldi	r31, 0xFF	; 255
    157e:	e0 94       	com	r14
    1580:	f0 94       	com	r15
    1582:	00 95       	com	r16
    1584:	10 95       	com	r17
    1586:	b0 94       	com	r11
    1588:	c0 94       	com	r12
    158a:	d0 94       	com	r13
    158c:	a1 94       	neg	r10
    158e:	bf 0a       	sbc	r11, r31
    1590:	cf 0a       	sbc	r12, r31
    1592:	df 0a       	sbc	r13, r31
    1594:	ef 0a       	sbc	r14, r31
    1596:	ff 0a       	sbc	r15, r31
    1598:	0f 0b       	sbc	r16, r31
    159a:	1f 0b       	sbc	r17, r31
    159c:	0e 94 e6 0a 	call	0x15cc	; 0x15cc <__udivmod64>
    15a0:	07 fc       	sbrc	r0, 7
    15a2:	0e 94 37 0b 	call	0x166e	; 0x166e <__negdi2>
    15a6:	cd b7       	in	r28, 0x3d	; 61
    15a8:	de b7       	in	r29, 0x3e	; 62
    15aa:	ec e0       	ldi	r30, 0x0C	; 12
    15ac:	0c 94 69 0b 	jmp	0x16d2	; 0x16d2 <__epilogue_restores__+0xc>

000015b0 <__umoddi3>:
    15b0:	68 94       	set
    15b2:	01 c0       	rjmp	.+2      	; 0x15b6 <__udivdi3_umoddi3>

000015b4 <__udivdi3>:
    15b4:	e8 94       	clt

000015b6 <__udivdi3_umoddi3>:
    15b6:	8f 92       	push	r8
    15b8:	9f 92       	push	r9
    15ba:	cf 93       	push	r28
    15bc:	df 93       	push	r29
    15be:	0e 94 e6 0a 	call	0x15cc	; 0x15cc <__udivmod64>
    15c2:	df 91       	pop	r29
    15c4:	cf 91       	pop	r28
    15c6:	9f 90       	pop	r9
    15c8:	8f 90       	pop	r8
    15ca:	08 95       	ret

000015cc <__udivmod64>:
    15cc:	88 24       	eor	r8, r8
    15ce:	99 24       	eor	r9, r9
    15d0:	f4 01       	movw	r30, r8
    15d2:	e4 01       	movw	r28, r8
    15d4:	b0 e4       	ldi	r27, 0x40	; 64
    15d6:	9f 93       	push	r25
    15d8:	aa 27       	eor	r26, r26
    15da:	9a 15       	cp	r25, r10
    15dc:	8b 04       	cpc	r8, r11
    15de:	9c 04       	cpc	r9, r12
    15e0:	ed 05       	cpc	r30, r13
    15e2:	fe 05       	cpc	r31, r14
    15e4:	cf 05       	cpc	r28, r15
    15e6:	d0 07       	cpc	r29, r16
    15e8:	a1 07       	cpc	r26, r17
    15ea:	98 f4       	brcc	.+38     	; 0x1612 <__udivmod64+0x46>
    15ec:	ad 2f       	mov	r26, r29
    15ee:	dc 2f       	mov	r29, r28
    15f0:	cf 2f       	mov	r28, r31
    15f2:	fe 2f       	mov	r31, r30
    15f4:	e9 2d       	mov	r30, r9
    15f6:	98 2c       	mov	r9, r8
    15f8:	89 2e       	mov	r8, r25
    15fa:	98 2f       	mov	r25, r24
    15fc:	87 2f       	mov	r24, r23
    15fe:	76 2f       	mov	r23, r22
    1600:	65 2f       	mov	r22, r21
    1602:	54 2f       	mov	r21, r20
    1604:	43 2f       	mov	r20, r19
    1606:	32 2f       	mov	r19, r18
    1608:	22 27       	eor	r18, r18
    160a:	b8 50       	subi	r27, 0x08	; 8
    160c:	31 f7       	brne	.-52     	; 0x15da <__udivmod64+0xe>
    160e:	bf 91       	pop	r27
    1610:	27 c0       	rjmp	.+78     	; 0x1660 <__udivmod64+0x94>
    1612:	1b 2e       	mov	r1, r27
    1614:	bf 91       	pop	r27
    1616:	bb 27       	eor	r27, r27
    1618:	22 0f       	add	r18, r18
    161a:	33 1f       	adc	r19, r19
    161c:	44 1f       	adc	r20, r20
    161e:	55 1f       	adc	r21, r21
    1620:	66 1f       	adc	r22, r22
    1622:	77 1f       	adc	r23, r23
    1624:	88 1f       	adc	r24, r24
    1626:	99 1f       	adc	r25, r25
    1628:	88 1c       	adc	r8, r8
    162a:	99 1c       	adc	r9, r9
    162c:	ee 1f       	adc	r30, r30
    162e:	ff 1f       	adc	r31, r31
    1630:	cc 1f       	adc	r28, r28
    1632:	dd 1f       	adc	r29, r29
    1634:	aa 1f       	adc	r26, r26
    1636:	bb 1f       	adc	r27, r27
    1638:	8a 14       	cp	r8, r10
    163a:	9b 04       	cpc	r9, r11
    163c:	ec 05       	cpc	r30, r12
    163e:	fd 05       	cpc	r31, r13
    1640:	ce 05       	cpc	r28, r14
    1642:	df 05       	cpc	r29, r15
    1644:	a0 07       	cpc	r26, r16
    1646:	b1 07       	cpc	r27, r17
    1648:	48 f0       	brcs	.+18     	; 0x165c <__udivmod64+0x90>
    164a:	8a 18       	sub	r8, r10
    164c:	9b 08       	sbc	r9, r11
    164e:	ec 09       	sbc	r30, r12
    1650:	fd 09       	sbc	r31, r13
    1652:	ce 09       	sbc	r28, r14
    1654:	df 09       	sbc	r29, r15
    1656:	a0 0b       	sbc	r26, r16
    1658:	b1 0b       	sbc	r27, r17
    165a:	21 60       	ori	r18, 0x01	; 1
    165c:	1a 94       	dec	r1
    165e:	e1 f6       	brne	.-72     	; 0x1618 <__udivmod64+0x4c>
    1660:	2e f4       	brtc	.+10     	; 0x166c <__udivmod64+0xa0>
    1662:	94 01       	movw	r18, r8
    1664:	af 01       	movw	r20, r30
    1666:	be 01       	movw	r22, r28
    1668:	cd 01       	movw	r24, r26
    166a:	00 0c       	add	r0, r0
    166c:	08 95       	ret

0000166e <__negdi2>:
    166e:	60 95       	com	r22
    1670:	70 95       	com	r23
    1672:	80 95       	com	r24
    1674:	90 95       	com	r25
    1676:	30 95       	com	r19
    1678:	40 95       	com	r20
    167a:	50 95       	com	r21
    167c:	21 95       	neg	r18
    167e:	3f 4f       	sbci	r19, 0xFF	; 255
    1680:	4f 4f       	sbci	r20, 0xFF	; 255
    1682:	5f 4f       	sbci	r21, 0xFF	; 255
    1684:	6f 4f       	sbci	r22, 0xFF	; 255
    1686:	7f 4f       	sbci	r23, 0xFF	; 255
    1688:	8f 4f       	sbci	r24, 0xFF	; 255
    168a:	9f 4f       	sbci	r25, 0xFF	; 255
    168c:	08 95       	ret

0000168e <__prologue_saves__>:
    168e:	2f 92       	push	r2
    1690:	3f 92       	push	r3
    1692:	4f 92       	push	r4
    1694:	5f 92       	push	r5
    1696:	6f 92       	push	r6
    1698:	7f 92       	push	r7
    169a:	8f 92       	push	r8
    169c:	9f 92       	push	r9
    169e:	af 92       	push	r10
    16a0:	bf 92       	push	r11
    16a2:	cf 92       	push	r12
    16a4:	df 92       	push	r13
    16a6:	ef 92       	push	r14
    16a8:	ff 92       	push	r15
    16aa:	0f 93       	push	r16
    16ac:	1f 93       	push	r17
    16ae:	cf 93       	push	r28
    16b0:	df 93       	push	r29
    16b2:	cd b7       	in	r28, 0x3d	; 61
    16b4:	de b7       	in	r29, 0x3e	; 62
    16b6:	ca 1b       	sub	r28, r26
    16b8:	db 0b       	sbc	r29, r27
    16ba:	0f b6       	in	r0, 0x3f	; 63
    16bc:	f8 94       	cli
    16be:	de bf       	out	0x3e, r29	; 62
    16c0:	0f be       	out	0x3f, r0	; 63
    16c2:	cd bf       	out	0x3d, r28	; 61
    16c4:	09 94       	ijmp

000016c6 <__epilogue_restores__>:
    16c6:	2a 88       	ldd	r2, Y+18	; 0x12
    16c8:	39 88       	ldd	r3, Y+17	; 0x11
    16ca:	48 88       	ldd	r4, Y+16	; 0x10
    16cc:	5f 84       	ldd	r5, Y+15	; 0x0f
    16ce:	6e 84       	ldd	r6, Y+14	; 0x0e
    16d0:	7d 84       	ldd	r7, Y+13	; 0x0d
    16d2:	8c 84       	ldd	r8, Y+12	; 0x0c
    16d4:	9b 84       	ldd	r9, Y+11	; 0x0b
    16d6:	aa 84       	ldd	r10, Y+10	; 0x0a
    16d8:	b9 84       	ldd	r11, Y+9	; 0x09
    16da:	c8 84       	ldd	r12, Y+8	; 0x08
    16dc:	df 80       	ldd	r13, Y+7	; 0x07
    16de:	ee 80       	ldd	r14, Y+6	; 0x06
    16e0:	fd 80       	ldd	r15, Y+5	; 0x05
    16e2:	0c 81       	ldd	r16, Y+4	; 0x04
    16e4:	1b 81       	ldd	r17, Y+3	; 0x03
    16e6:	aa 81       	ldd	r26, Y+2	; 0x02
    16e8:	b9 81       	ldd	r27, Y+1	; 0x01
    16ea:	ce 0f       	add	r28, r30
    16ec:	d1 1d       	adc	r29, r1
    16ee:	0f b6       	in	r0, 0x3f	; 63
    16f0:	f8 94       	cli
    16f2:	de bf       	out	0x3e, r29	; 62
    16f4:	0f be       	out	0x3f, r0	; 63
    16f6:	cd bf       	out	0x3d, r28	; 61
    16f8:	ed 01       	movw	r28, r26
    16fa:	08 95       	ret

000016fc <__ashldi3>:
    16fc:	0f 93       	push	r16
    16fe:	08 30       	cpi	r16, 0x08	; 8
    1700:	90 f0       	brcs	.+36     	; 0x1726 <__ashldi3+0x2a>
    1702:	98 2f       	mov	r25, r24
    1704:	87 2f       	mov	r24, r23
    1706:	76 2f       	mov	r23, r22
    1708:	65 2f       	mov	r22, r21
    170a:	54 2f       	mov	r21, r20
    170c:	43 2f       	mov	r20, r19
    170e:	32 2f       	mov	r19, r18
    1710:	22 27       	eor	r18, r18
    1712:	08 50       	subi	r16, 0x08	; 8
    1714:	f4 cf       	rjmp	.-24     	; 0x16fe <__ashldi3+0x2>
    1716:	22 0f       	add	r18, r18
    1718:	33 1f       	adc	r19, r19
    171a:	44 1f       	adc	r20, r20
    171c:	55 1f       	adc	r21, r21
    171e:	66 1f       	adc	r22, r22
    1720:	77 1f       	adc	r23, r23
    1722:	88 1f       	adc	r24, r24
    1724:	99 1f       	adc	r25, r25
    1726:	0a 95       	dec	r16
    1728:	b2 f7       	brpl	.-20     	; 0x1716 <__ashldi3+0x1a>
    172a:	0f 91       	pop	r16
    172c:	08 95       	ret

0000172e <__ashrdi3>:
    172e:	97 fb       	bst	r25, 7
    1730:	10 f8       	bld	r1, 0

00001732 <__lshrdi3>:
    1732:	16 94       	lsr	r1
    1734:	00 08       	sbc	r0, r0
    1736:	0f 93       	push	r16
    1738:	08 30       	cpi	r16, 0x08	; 8
    173a:	98 f0       	brcs	.+38     	; 0x1762 <__lshrdi3+0x30>
    173c:	08 50       	subi	r16, 0x08	; 8
    173e:	23 2f       	mov	r18, r19
    1740:	34 2f       	mov	r19, r20
    1742:	45 2f       	mov	r20, r21
    1744:	56 2f       	mov	r21, r22
    1746:	67 2f       	mov	r22, r23
    1748:	78 2f       	mov	r23, r24
    174a:	89 2f       	mov	r24, r25
    174c:	90 2d       	mov	r25, r0
    174e:	f4 cf       	rjmp	.-24     	; 0x1738 <__lshrdi3+0x6>
    1750:	05 94       	asr	r0
    1752:	97 95       	ror	r25
    1754:	87 95       	ror	r24
    1756:	77 95       	ror	r23
    1758:	67 95       	ror	r22
    175a:	57 95       	ror	r21
    175c:	47 95       	ror	r20
    175e:	37 95       	ror	r19
    1760:	27 95       	ror	r18
    1762:	0a 95       	dec	r16
    1764:	aa f7       	brpl	.-22     	; 0x1750 <__lshrdi3+0x1e>
    1766:	0f 91       	pop	r16
    1768:	08 95       	ret

0000176a <__adddi3>:
    176a:	2a 0d       	add	r18, r10
    176c:	3b 1d       	adc	r19, r11
    176e:	4c 1d       	adc	r20, r12
    1770:	5d 1d       	adc	r21, r13
    1772:	6e 1d       	adc	r22, r14
    1774:	7f 1d       	adc	r23, r15
    1776:	80 1f       	adc	r24, r16
    1778:	91 1f       	adc	r25, r17
    177a:	08 95       	ret

0000177c <__subdi3>:
    177c:	2a 19       	sub	r18, r10
    177e:	3b 09       	sbc	r19, r11
    1780:	4c 09       	sbc	r20, r12
    1782:	5d 09       	sbc	r21, r13
    1784:	6e 09       	sbc	r22, r14
    1786:	7f 09       	sbc	r23, r15
    1788:	80 0b       	sbc	r24, r16
    178a:	91 0b       	sbc	r25, r17
    178c:	08 95       	ret

0000178e <__cmpdi2_s8>:
    178e:	00 24       	eor	r0, r0
    1790:	a7 fd       	sbrc	r26, 7
    1792:	00 94       	com	r0
    1794:	2a 17       	cp	r18, r26
    1796:	30 05       	cpc	r19, r0
    1798:	40 05       	cpc	r20, r0
    179a:	50 05       	cpc	r21, r0
    179c:	60 05       	cpc	r22, r0
    179e:	70 05       	cpc	r23, r0
    17a0:	80 05       	cpc	r24, r0
    17a2:	90 05       	cpc	r25, r0
    17a4:	08 95       	ret

000017a6 <__udivmodhi4>:
    17a6:	aa 1b       	sub	r26, r26
    17a8:	bb 1b       	sub	r27, r27
    17aa:	51 e1       	ldi	r21, 0x11	; 17
    17ac:	07 c0       	rjmp	.+14     	; 0x17bc <__udivmodhi4_ep>

000017ae <__udivmodhi4_loop>:
    17ae:	aa 1f       	adc	r26, r26
    17b0:	bb 1f       	adc	r27, r27
    17b2:	a6 17       	cp	r26, r22
    17b4:	b7 07       	cpc	r27, r23
    17b6:	10 f0       	brcs	.+4      	; 0x17bc <__udivmodhi4_ep>
    17b8:	a6 1b       	sub	r26, r22
    17ba:	b7 0b       	sbc	r27, r23

000017bc <__udivmodhi4_ep>:
    17bc:	88 1f       	adc	r24, r24
    17be:	99 1f       	adc	r25, r25
    17c0:	5a 95       	dec	r21
    17c2:	a9 f7       	brne	.-22     	; 0x17ae <__udivmodhi4_loop>
    17c4:	80 95       	com	r24
    17c6:	90 95       	com	r25
    17c8:	bc 01       	movw	r22, r24
    17ca:	cd 01       	movw	r24, r26
    17cc:	08 95       	ret

000017ce <__umulhisi3>:
    17ce:	a2 9f       	mul	r26, r18
    17d0:	b0 01       	movw	r22, r0
    17d2:	b3 9f       	mul	r27, r19
    17d4:	c0 01       	movw	r24, r0
    17d6:	a3 9f       	mul	r26, r19
    17d8:	70 0d       	add	r23, r0
    17da:	81 1d       	adc	r24, r1
    17dc:	11 24       	eor	r1, r1
    17de:	91 1d       	adc	r25, r1
    17e0:	b2 9f       	mul	r27, r18
    17e2:	70 0d       	add	r23, r0
    17e4:	81 1d       	adc	r24, r1
    17e6:	11 24       	eor	r1, r1
    17e8:	91 1d       	adc	r25, r1
    17ea:	08 95       	ret

000017ec <__itoa_ncheck>:
    17ec:	bb 27       	eor	r27, r27
    17ee:	4a 30       	cpi	r20, 0x0A	; 10
    17f0:	31 f4       	brne	.+12     	; 0x17fe <__itoa_ncheck+0x12>
    17f2:	99 23       	and	r25, r25
    17f4:	22 f4       	brpl	.+8      	; 0x17fe <__itoa_ncheck+0x12>
    17f6:	bd e2       	ldi	r27, 0x2D	; 45
    17f8:	90 95       	com	r25
    17fa:	81 95       	neg	r24
    17fc:	9f 4f       	sbci	r25, 0xFF	; 255
    17fe:	0c 94 02 0c 	jmp	0x1804	; 0x1804 <__utoa_common>

00001802 <__utoa_ncheck>:
    1802:	bb 27       	eor	r27, r27

00001804 <__utoa_common>:
    1804:	fb 01       	movw	r30, r22
    1806:	55 27       	eor	r21, r21
    1808:	aa 27       	eor	r26, r26
    180a:	88 0f       	add	r24, r24
    180c:	99 1f       	adc	r25, r25
    180e:	aa 1f       	adc	r26, r26
    1810:	a4 17       	cp	r26, r20
    1812:	10 f0       	brcs	.+4      	; 0x1818 <__utoa_common+0x14>
    1814:	a4 1b       	sub	r26, r20
    1816:	83 95       	inc	r24
    1818:	50 51       	subi	r21, 0x10	; 16
    181a:	b9 f7       	brne	.-18     	; 0x180a <__utoa_common+0x6>
    181c:	a0 5d       	subi	r26, 0xD0	; 208
    181e:	aa 33       	cpi	r26, 0x3A	; 58
    1820:	08 f0       	brcs	.+2      	; 0x1824 <__utoa_common+0x20>
    1822:	a9 5d       	subi	r26, 0xD9	; 217
    1824:	a1 93       	st	Z+, r26
    1826:	00 97       	sbiw	r24, 0x00	; 0
    1828:	79 f7       	brne	.-34     	; 0x1808 <__utoa_common+0x4>
    182a:	b1 11       	cpse	r27, r1
    182c:	b1 93       	st	Z+, r27
    182e:	11 92       	st	Z+, r1
    1830:	cb 01       	movw	r24, r22
    1832:	0c 94 1b 0c 	jmp	0x1836	; 0x1836 <strrev>

00001836 <strrev>:
    1836:	dc 01       	movw	r26, r24
    1838:	fc 01       	movw	r30, r24
    183a:	67 2f       	mov	r22, r23
    183c:	71 91       	ld	r23, Z+
    183e:	77 23       	and	r23, r23
    1840:	e1 f7       	brne	.-8      	; 0x183a <strrev+0x4>
    1842:	32 97       	sbiw	r30, 0x02	; 2
    1844:	04 c0       	rjmp	.+8      	; 0x184e <strrev+0x18>
    1846:	7c 91       	ld	r23, X
    1848:	6d 93       	st	X+, r22
    184a:	70 83       	st	Z, r23
    184c:	62 91       	ld	r22, -Z
    184e:	ae 17       	cp	r26, r30
    1850:	bf 07       	cpc	r27, r31
    1852:	c8 f3       	brcs	.-14     	; 0x1846 <strrev+0x10>
    1854:	08 95       	ret

00001856 <_exit>:
    1856:	f8 94       	cli

00001858 <__stop_program>:
    1858:	ff cf       	rjmp	.-2      	; 0x1858 <__stop_program>
