
WaterTankTrial.elf:     file format elf32-avr

Sections:
Idx Name          Size      VMA       LMA       File off  Algn
  0 .data         000000a0  00800100  00001bb6  00001c4a  2**0
                  CONTENTS, ALLOC, LOAD, DATA
  1 .text         00001bb6  00000000  00000000  00000094  2**1
                  CONTENTS, ALLOC, LOAD, READONLY, CODE
  2 .bss          00000033  008001a0  008001a0  00001cea  2**0
                  ALLOC
  3 .comment      00000030  00000000  00000000  00001cea  2**0
                  CONTENTS, READONLY
  4 .note.gnu.avr.deviceinfo 00000040  00000000  00000000  00001d1c  2**2
                  CONTENTS, READONLY
  5 .debug_aranges 00000248  00000000  00000000  00001d5c  2**0
                  CONTENTS, READONLY, DEBUGGING
  6 .debug_info   00002783  00000000  00000000  00001fa4  2**0
                  CONTENTS, READONLY, DEBUGGING
  7 .debug_abbrev 00000f44  00000000  00000000  00004727  2**0
                  CONTENTS, READONLY, DEBUGGING
  8 .debug_line   00001514  00000000  00000000  0000566b  2**0
                  CONTENTS, READONLY, DEBUGGING
  9 .debug_frame  000005f4  00000000  00000000  00006b80  2**2
                  CONTENTS, READONLY, DEBUGGING
 10 .debug_str    00000bff  00000000  00000000  00007174  2**0
                  CONTENTS, READONLY, DEBUGGING
 11 .debug_loc    00001ce3  00000000  00000000  00007d73  2**0
                  CONTENTS, READONLY, DEBUGGING
 12 .debug_ranges 000001d8  00000000  00000000  00009a56  2**0
                  CONTENTS, READONLY, DEBUGGING

Disassembly of section .text:

00000000 <__vectors>:
       0:	0c 94 34 00 	jmp	0x68	; 0x68 <__ctors_end>
       4:	0c 94 51 00 	jmp	0xa2	; 0xa2 <__bad_interrupt>
       8:	0c 94 51 00 	jmp	0xa2	; 0xa2 <__bad_interrupt>
       c:	0c 94 51 00 	jmp	0xa2	; 0xa2 <__bad_interrupt>
      10:	0c 94 51 00 	jmp	0xa2	; 0xa2 <__bad_interrupt>
      14:	0c 94 51 00 	jmp	0xa2	; 0xa2 <__bad_interrupt>
      18:	0c 94 51 00 	jmp	0xa2	; 0xa2 <__bad_interrupt>
      1c:	0c 94 51 00 	jmp	0xa2	; 0xa2 <__bad_interrupt>
      20:	0c 94 51 00 	jmp	0xa2	; 0xa2 <__bad_interrupt>
      24:	0c 94 51 00 	jmp	0xa2	; 0xa2 <__bad_interrupt>
      28:	0c 94 c1 04 	jmp	0x982	; 0x982 <__vector_10>
      2c:	0c 94 a9 04 	jmp	0x952	; 0x952 <__vector_11>
      30:	0c 94 51 00 	jmp	0xa2	; 0xa2 <__bad_interrupt>
      34:	0c 94 51 00 	jmp	0xa2	; 0xa2 <__bad_interrupt>
      38:	0c 94 51 00 	jmp	0xa2	; 0xa2 <__bad_interrupt>
      3c:	0c 94 51 00 	jmp	0xa2	; 0xa2 <__bad_interrupt>
      40:	0c 94 51 00 	jmp	0xa2	; 0xa2 <__bad_interrupt>
      44:	0c 94 51 00 	jmp	0xa2	; 0xa2 <__bad_interrupt>
      48:	0c 94 51 00 	jmp	0xa2	; 0xa2 <__bad_interrupt>
      4c:	0c 94 51 00 	jmp	0xa2	; 0xa2 <__bad_interrupt>
      50:	0c 94 51 00 	jmp	0xa2	; 0xa2 <__bad_interrupt>
      54:	0c 94 51 00 	jmp	0xa2	; 0xa2 <__bad_interrupt>
      58:	0c 94 51 00 	jmp	0xa2	; 0xa2 <__bad_interrupt>
      5c:	0c 94 51 00 	jmp	0xa2	; 0xa2 <__bad_interrupt>
      60:	0c 94 51 00 	jmp	0xa2	; 0xa2 <__bad_interrupt>
      64:	0c 94 51 00 	jmp	0xa2	; 0xa2 <__bad_interrupt>

00000068 <__ctors_end>:
      68:	11 24       	eor	r1, r1
      6a:	1f be       	out	0x3f, r1	; 63
      6c:	cf ef       	ldi	r28, 0xFF	; 255
      6e:	d8 e0       	ldi	r29, 0x08	; 8
      70:	de bf       	out	0x3e, r29	; 62
      72:	cd bf       	out	0x3d, r28	; 61

00000074 <__do_copy_data>:
      74:	11 e0       	ldi	r17, 0x01	; 1
      76:	a0 e0       	ldi	r26, 0x00	; 0
      78:	b1 e0       	ldi	r27, 0x01	; 1
      7a:	e6 eb       	ldi	r30, 0xB6	; 182
      7c:	fb e1       	ldi	r31, 0x1B	; 27
      7e:	02 c0       	rjmp	.+4      	; 0x84 <__do_copy_data+0x10>
      80:	05 90       	lpm	r0, Z+
      82:	0d 92       	st	X+, r0
      84:	a0 3a       	cpi	r26, 0xA0	; 160
      86:	b1 07       	cpc	r27, r17
      88:	d9 f7       	brne	.-10     	; 0x80 <__do_copy_data+0xc>

0000008a <__do_clear_bss>:
      8a:	21 e0       	ldi	r18, 0x01	; 1
      8c:	a0 ea       	ldi	r26, 0xA0	; 160
      8e:	b1 e0       	ldi	r27, 0x01	; 1
      90:	01 c0       	rjmp	.+2      	; 0x94 <.do_clear_bss_start>

00000092 <.do_clear_bss_loop>:
      92:	1d 92       	st	X+, r1

00000094 <.do_clear_bss_start>:
      94:	a3 3d       	cpi	r26, 0xD3	; 211
      96:	b2 07       	cpc	r27, r18
      98:	e1 f7       	brne	.-8      	; 0x92 <.do_clear_bss_loop>
      9a:	0e 94 9a 08 	call	0x1134	; 0x1134 <main>
      9e:	0c 94 d9 0d 	jmp	0x1bb2	; 0x1bb2 <_exit>

000000a2 <__bad_interrupt>:
      a2:	0c 94 00 00 	jmp	0	; 0x0 <__vectors>

000000a6 <bme280_read1Byte>:
      a6:	cf 93       	push	r28
      a8:	c8 2f       	mov	r28, r24
      aa:	8e ee       	ldi	r24, 0xEE	; 238
      ac:	0e 94 65 05 	call	0xaca	; 0xaca <i2c_start>
      b0:	8c 2f       	mov	r24, r28
      b2:	0e 94 96 05 	call	0xb2c	; 0xb2c <i2c_byte>
      b6:	0e 94 92 05 	call	0xb24	; 0xb24 <i2c_stop>
      ba:	8f ee       	ldi	r24, 0xEF	; 239
      bc:	0e 94 65 05 	call	0xaca	; 0xaca <i2c_start>
      c0:	0e 94 c5 05 	call	0xb8a	; 0xb8a <i2c_readNAck>
      c4:	c8 2f       	mov	r28, r24
      c6:	0e 94 92 05 	call	0xb24	; 0xb24 <i2c_stop>
      ca:	8c 2f       	mov	r24, r28
      cc:	cf 91       	pop	r28
      ce:	08 95       	ret

000000d0 <bme280_read2Byte>:
      d0:	cf 93       	push	r28
      d2:	df 93       	push	r29
      d4:	c8 2f       	mov	r28, r24
      d6:	8e ee       	ldi	r24, 0xEE	; 238
      d8:	0e 94 65 05 	call	0xaca	; 0xaca <i2c_start>
      dc:	8c 2f       	mov	r24, r28
      de:	0e 94 96 05 	call	0xb2c	; 0xb2c <i2c_byte>
      e2:	0e 94 92 05 	call	0xb24	; 0xb24 <i2c_stop>
      e6:	8f ee       	ldi	r24, 0xEF	; 239
      e8:	0e 94 65 05 	call	0xaca	; 0xaca <i2c_start>
      ec:	0e 94 ad 05 	call	0xb5a	; 0xb5a <i2c_readAck>
      f0:	c8 2f       	mov	r28, r24
      f2:	d0 e0       	ldi	r29, 0x00	; 0
      f4:	dc 2f       	mov	r29, r28
      f6:	cc 27       	eor	r28, r28
      f8:	0e 94 c5 05 	call	0xb8a	; 0xb8a <i2c_readNAck>
      fc:	c8 2b       	or	r28, r24
      fe:	0e 94 92 05 	call	0xb24	; 0xb24 <i2c_stop>
     102:	ce 01       	movw	r24, r28
     104:	df 91       	pop	r29
     106:	cf 91       	pop	r28
     108:	08 95       	ret

0000010a <bme280_read3Byte>:
     10a:	cf 92       	push	r12
     10c:	df 92       	push	r13
     10e:	ef 92       	push	r14
     110:	ff 92       	push	r15
     112:	f8 2e       	mov	r15, r24
     114:	8e ee       	ldi	r24, 0xEE	; 238
     116:	0e 94 65 05 	call	0xaca	; 0xaca <i2c_start>
     11a:	8f 2d       	mov	r24, r15
     11c:	0e 94 96 05 	call	0xb2c	; 0xb2c <i2c_byte>
     120:	0e 94 92 05 	call	0xb24	; 0xb24 <i2c_stop>
     124:	8f ee       	ldi	r24, 0xEF	; 239
     126:	0e 94 65 05 	call	0xaca	; 0xaca <i2c_start>
     12a:	0e 94 ad 05 	call	0xb5a	; 0xb5a <i2c_readAck>
     12e:	c8 2e       	mov	r12, r24
     130:	d1 2c       	mov	r13, r1
     132:	e1 2c       	mov	r14, r1
     134:	f1 2c       	mov	r15, r1
     136:	fe 2c       	mov	r15, r14
     138:	ed 2c       	mov	r14, r13
     13a:	dc 2c       	mov	r13, r12
     13c:	cc 24       	eor	r12, r12
     13e:	0e 94 ad 05 	call	0xb5a	; 0xb5a <i2c_readAck>
     142:	c8 2a       	or	r12, r24
     144:	fe 2c       	mov	r15, r14
     146:	ed 2c       	mov	r14, r13
     148:	dc 2c       	mov	r13, r12
     14a:	cc 24       	eor	r12, r12
     14c:	0e 94 c5 05 	call	0xb8a	; 0xb8a <i2c_readNAck>
     150:	c8 2a       	or	r12, r24
     152:	0e 94 92 05 	call	0xb24	; 0xb24 <i2c_stop>
     156:	c7 01       	movw	r24, r14
     158:	b6 01       	movw	r22, r12
     15a:	ff 90       	pop	r15
     15c:	ef 90       	pop	r14
     15e:	df 90       	pop	r13
     160:	cf 90       	pop	r12
     162:	08 95       	ret

00000164 <bme280_readTemperature>:
     164:	4f 92       	push	r4
     166:	5f 92       	push	r5
     168:	6f 92       	push	r6
     16a:	7f 92       	push	r7
     16c:	8f 92       	push	r8
     16e:	9f 92       	push	r9
     170:	af 92       	push	r10
     172:	bf 92       	push	r11
     174:	cf 92       	push	r12
     176:	df 92       	push	r13
     178:	ef 92       	push	r14
     17a:	ff 92       	push	r15
     17c:	8a ef       	ldi	r24, 0xFA	; 250
     17e:	0e 94 85 00 	call	0x10a	; 0x10a <bme280_read3Byte>
     182:	6b 01       	movw	r12, r22
     184:	7c 01       	movw	r14, r24
     186:	c1 14       	cp	r12, r1
     188:	d1 04       	cpc	r13, r1
     18a:	80 e8       	ldi	r24, 0x80	; 128
     18c:	e8 06       	cpc	r14, r24
     18e:	f1 04       	cpc	r15, r1
     190:	09 f4       	brne	.+2      	; 0x194 <bme280_readTemperature+0x30>
     192:	8e c0       	rjmp	.+284    	; 0x2b0 <bme280_readTemperature+0x14c>
     194:	b7 01       	movw	r22, r14
     196:	a6 01       	movw	r20, r12
     198:	68 94       	set
     19a:	16 f8       	bld	r1, 6
     19c:	76 95       	lsr	r23
     19e:	67 95       	ror	r22
     1a0:	57 95       	ror	r21
     1a2:	47 95       	ror	r20
     1a4:	16 94       	lsr	r1
     1a6:	d1 f7       	brne	.-12     	; 0x19c <bme280_readTemperature+0x38>
     1a8:	e1 ea       	ldi	r30, 0xA1	; 161
     1aa:	f1 e0       	ldi	r31, 0x01	; 1
     1ac:	80 81       	ld	r24, Z
     1ae:	91 81       	ldd	r25, Z+1	; 0x01
     1b0:	a0 e0       	ldi	r26, 0x00	; 0
     1b2:	b0 e0       	ldi	r27, 0x00	; 0
     1b4:	88 0f       	add	r24, r24
     1b6:	99 1f       	adc	r25, r25
     1b8:	aa 1f       	adc	r26, r26
     1ba:	bb 1f       	adc	r27, r27
     1bc:	9a 01       	movw	r18, r20
     1be:	ab 01       	movw	r20, r22
     1c0:	28 1b       	sub	r18, r24
     1c2:	39 0b       	sbc	r19, r25
     1c4:	4a 0b       	sbc	r20, r26
     1c6:	5b 0b       	sbc	r21, r27
     1c8:	a2 81       	ldd	r26, Z+2	; 0x02
     1ca:	b3 81       	ldd	r27, Z+3	; 0x03
     1cc:	0e 94 f4 0b 	call	0x17e8	; 0x17e8 <__mulshisi3>
     1d0:	4b 01       	movw	r8, r22
     1d2:	5c 01       	movw	r10, r24
     1d4:	07 2e       	mov	r0, r23
     1d6:	7b e0       	ldi	r23, 0x0B	; 11
     1d8:	b6 94       	lsr	r11
     1da:	a7 94       	ror	r10
     1dc:	97 94       	ror	r9
     1de:	87 94       	ror	r8
     1e0:	7a 95       	dec	r23
     1e2:	d1 f7       	brne	.-12     	; 0x1d8 <bme280_readTemperature+0x74>
     1e4:	70 2d       	mov	r23, r0
     1e6:	cd 2c       	mov	r12, r13
     1e8:	de 2c       	mov	r13, r14
     1ea:	ef 2c       	mov	r14, r15
     1ec:	ff 24       	eor	r15, r15
     1ee:	80 81       	ld	r24, Z
     1f0:	91 81       	ldd	r25, Z+1	; 0x01
     1f2:	a7 01       	movw	r20, r14
     1f4:	96 01       	movw	r18, r12
     1f6:	28 1b       	sub	r18, r24
     1f8:	39 0b       	sbc	r19, r25
     1fa:	41 09       	sbc	r20, r1
     1fc:	51 09       	sbc	r21, r1
     1fe:	80 81       	ld	r24, Z
     200:	91 81       	ldd	r25, Z+1	; 0x01
     202:	26 01       	movw	r4, r12
     204:	37 01       	movw	r6, r14
     206:	48 1a       	sub	r4, r24
     208:	59 0a       	sbc	r5, r25
     20a:	61 08       	sbc	r6, r1
     20c:	71 08       	sbc	r7, r1
     20e:	c3 01       	movw	r24, r6
     210:	b2 01       	movw	r22, r4
     212:	0e 94 c5 0b 	call	0x178a	; 0x178a <__mulsi3>
     216:	9b 01       	movw	r18, r22
     218:	ac 01       	movw	r20, r24
     21a:	01 2e       	mov	r0, r17
     21c:	1c e0       	ldi	r17, 0x0C	; 12
     21e:	56 95       	lsr	r21
     220:	47 95       	ror	r20
     222:	37 95       	ror	r19
     224:	27 95       	ror	r18
     226:	1a 95       	dec	r17
     228:	d1 f7       	brne	.-12     	; 0x21e <bme280_readTemperature+0xba>
     22a:	10 2d       	mov	r17, r0
     22c:	a4 81       	ldd	r26, Z+4	; 0x04
     22e:	b5 81       	ldd	r27, Z+5	; 0x05
     230:	0e 94 f4 0b 	call	0x17e8	; 0x17e8 <__mulshisi3>
     234:	dc 01       	movw	r26, r24
     236:	cb 01       	movw	r24, r22
     238:	07 2e       	mov	r0, r23
     23a:	7e e0       	ldi	r23, 0x0E	; 14
     23c:	b6 95       	lsr	r27
     23e:	a7 95       	ror	r26
     240:	97 95       	ror	r25
     242:	87 95       	ror	r24
     244:	7a 95       	dec	r23
     246:	d1 f7       	brne	.-12     	; 0x23c <bme280_readTemperature+0xd8>
     248:	70 2d       	mov	r23, r0
     24a:	88 0d       	add	r24, r8
     24c:	99 1d       	adc	r25, r9
     24e:	aa 1d       	adc	r26, r10
     250:	bb 1d       	adc	r27, r11
     252:	80 93 c2 01 	sts	0x01C2, r24	; 0x8001c2 <t_fine>
     256:	90 93 c3 01 	sts	0x01C3, r25	; 0x8001c3 <t_fine+0x1>
     25a:	a0 93 c4 01 	sts	0x01C4, r26	; 0x8001c4 <t_fine+0x2>
     25e:	b0 93 c5 01 	sts	0x01C5, r27	; 0x8001c5 <t_fine+0x3>
     262:	80 91 c2 01 	lds	r24, 0x01C2	; 0x8001c2 <t_fine>
     266:	90 91 c3 01 	lds	r25, 0x01C3	; 0x8001c3 <t_fine+0x1>
     26a:	a0 91 c4 01 	lds	r26, 0x01C4	; 0x8001c4 <t_fine+0x2>
     26e:	b0 91 c5 01 	lds	r27, 0x01C5	; 0x8001c5 <t_fine+0x3>
     272:	ac 01       	movw	r20, r24
     274:	bd 01       	movw	r22, r26
     276:	44 0f       	add	r20, r20
     278:	55 1f       	adc	r21, r21
     27a:	66 1f       	adc	r22, r22
     27c:	77 1f       	adc	r23, r23
     27e:	44 0f       	add	r20, r20
     280:	55 1f       	adc	r21, r21
     282:	66 1f       	adc	r22, r22
     284:	77 1f       	adc	r23, r23
     286:	84 0f       	add	r24, r20
     288:	95 1f       	adc	r25, r21
     28a:	a6 1f       	adc	r26, r22
     28c:	b7 1f       	adc	r27, r23
     28e:	80 58       	subi	r24, 0x80	; 128
     290:	9f 4f       	sbci	r25, 0xFF	; 255
     292:	af 4f       	sbci	r26, 0xFF	; 255
     294:	bf 4f       	sbci	r27, 0xFF	; 255
     296:	69 2f       	mov	r22, r25
     298:	7a 2f       	mov	r23, r26
     29a:	8b 2f       	mov	r24, r27
     29c:	99 27       	eor	r25, r25
     29e:	0e 94 2f 0a 	call	0x145e	; 0x145e <__floatunsisf>
     2a2:	20 e0       	ldi	r18, 0x00	; 0
     2a4:	30 e0       	ldi	r19, 0x00	; 0
     2a6:	48 ec       	ldi	r20, 0xC8	; 200
     2a8:	52 e4       	ldi	r21, 0x42	; 66
     2aa:	0e 94 88 09 	call	0x1310	; 0x1310 <__divsf3>
     2ae:	04 c0       	rjmp	.+8      	; 0x2b8 <bme280_readTemperature+0x154>
     2b0:	60 e0       	ldi	r22, 0x00	; 0
     2b2:	70 e0       	ldi	r23, 0x00	; 0
     2b4:	80 ec       	ldi	r24, 0xC0	; 192
     2b6:	9f e7       	ldi	r25, 0x7F	; 127
     2b8:	ff 90       	pop	r15
     2ba:	ef 90       	pop	r14
     2bc:	df 90       	pop	r13
     2be:	cf 90       	pop	r12
     2c0:	bf 90       	pop	r11
     2c2:	af 90       	pop	r10
     2c4:	9f 90       	pop	r9
     2c6:	8f 90       	pop	r8
     2c8:	7f 90       	pop	r7
     2ca:	6f 90       	pop	r6
     2cc:	5f 90       	pop	r5
     2ce:	4f 90       	pop	r4
     2d0:	08 95       	ret

000002d2 <bme280_readPressure>:
     2d2:	2f 92       	push	r2
     2d4:	3f 92       	push	r3
     2d6:	4f 92       	push	r4
     2d8:	5f 92       	push	r5
     2da:	6f 92       	push	r6
     2dc:	7f 92       	push	r7
     2de:	8f 92       	push	r8
     2e0:	9f 92       	push	r9
     2e2:	af 92       	push	r10
     2e4:	bf 92       	push	r11
     2e6:	cf 92       	push	r12
     2e8:	df 92       	push	r13
     2ea:	ef 92       	push	r14
     2ec:	ff 92       	push	r15
     2ee:	0f 93       	push	r16
     2f0:	1f 93       	push	r17
     2f2:	cf 93       	push	r28
     2f4:	df 93       	push	r29
     2f6:	cd b7       	in	r28, 0x3d	; 61
     2f8:	de b7       	in	r29, 0x3e	; 62
     2fa:	6e 97       	sbiw	r28, 0x1e	; 30
     2fc:	0f b6       	in	r0, 0x3f	; 63
     2fe:	f8 94       	cli
     300:	de bf       	out	0x3e, r29	; 62
     302:	0f be       	out	0x3f, r0	; 63
     304:	cd bf       	out	0x3d, r28	; 61
     306:	0e 94 b2 00 	call	0x164	; 0x164 <bme280_readTemperature>
     30a:	87 ef       	ldi	r24, 0xF7	; 247
     30c:	0e 94 85 00 	call	0x10a	; 0x10a <bme280_read3Byte>
     310:	61 15       	cp	r22, r1
     312:	71 05       	cpc	r23, r1
     314:	00 e8       	ldi	r16, 0x80	; 128
     316:	80 07       	cpc	r24, r16
     318:	91 05       	cpc	r25, r1
     31a:	09 f4       	brne	.+2      	; 0x31e <bme280_readPressure+0x4c>
     31c:	3d c2       	rjmp	.+1146   	; 0x798 <__EEPROM_REGION_LENGTH__+0x398>
     31e:	9b 01       	movw	r18, r22
     320:	ac 01       	movw	r20, r24
     322:	68 94       	set
     324:	13 f8       	bld	r1, 3
     326:	55 95       	asr	r21
     328:	47 95       	ror	r20
     32a:	37 95       	ror	r19
     32c:	27 95       	ror	r18
     32e:	16 94       	lsr	r1
     330:	d1 f7       	brne	.-12     	; 0x326 <bme280_readPressure+0x54>
     332:	29 8b       	std	Y+17, r18	; 0x11
     334:	3a 8b       	std	Y+18, r19	; 0x12
     336:	4b 8b       	std	Y+19, r20	; 0x13
     338:	5c 8b       	std	Y+20, r21	; 0x14
     33a:	80 91 c2 01 	lds	r24, 0x01C2	; 0x8001c2 <t_fine>
     33e:	90 91 c3 01 	lds	r25, 0x01C3	; 0x8001c3 <t_fine+0x1>
     342:	a0 91 c4 01 	lds	r26, 0x01C4	; 0x8001c4 <t_fine+0x2>
     346:	b0 91 c5 01 	lds	r27, 0x01C5	; 0x8001c5 <t_fine+0x3>
     34a:	8c 01       	movw	r16, r24
     34c:	9d 01       	movw	r18, r26
     34e:	40 e0       	ldi	r20, 0x00	; 0
     350:	50 e0       	ldi	r21, 0x00	; 0
     352:	ba 01       	movw	r22, r20
     354:	8f 8b       	std	Y+23, r24	; 0x17
     356:	18 8f       	std	Y+24, r17	; 0x18
     358:	29 8f       	std	Y+25, r18	; 0x19
     35a:	3a 8f       	std	Y+26, r19	; 0x1a
     35c:	4b 8f       	std	Y+27, r20	; 0x1b
     35e:	5c 8f       	std	Y+28, r21	; 0x1c
     360:	6d 8f       	std	Y+29, r22	; 0x1d
     362:	7e 8f       	std	Y+30, r23	; 0x1e
     364:	28 2f       	mov	r18, r24
     366:	31 2f       	mov	r19, r17
     368:	49 8d       	ldd	r20, Y+25	; 0x19
     36a:	5a 8d       	ldd	r21, Y+26	; 0x1a
     36c:	60 e0       	ldi	r22, 0x00	; 0
     36e:	70 e0       	ldi	r23, 0x00	; 0
     370:	80 e0       	ldi	r24, 0x00	; 0
     372:	90 e0       	ldi	r25, 0x00	; 0
     374:	34 5f       	subi	r19, 0xF4	; 244
     376:	41 40       	sbci	r20, 0x01	; 1
     378:	51 09       	sbc	r21, r1
     37a:	61 09       	sbc	r22, r1
     37c:	71 09       	sbc	r23, r1
     37e:	81 09       	sbc	r24, r1
     380:	91 09       	sbc	r25, r1
     382:	29 83       	std	Y+1, r18	; 0x01
     384:	3a 83       	std	Y+2, r19	; 0x02
     386:	44 2e       	mov	r4, r20
     388:	55 2e       	mov	r5, r21
     38a:	66 2e       	mov	r6, r22
     38c:	77 2e       	mov	r7, r23
     38e:	28 2e       	mov	r2, r24
     390:	39 2e       	mov	r3, r25
     392:	a2 2e       	mov	r10, r18
     394:	b3 2e       	mov	r11, r19
     396:	c4 2e       	mov	r12, r20
     398:	d5 2e       	mov	r13, r21
     39a:	e6 2e       	mov	r14, r22
     39c:	f7 2e       	mov	r15, r23
     39e:	08 2f       	mov	r16, r24
     3a0:	19 2f       	mov	r17, r25
     3a2:	0e 94 fc 0b 	call	0x17f8	; 0x17f8 <__muldi3>
     3a6:	2b 83       	std	Y+3, r18	; 0x03
     3a8:	3c 83       	std	Y+4, r19	; 0x04
     3aa:	4d 83       	std	Y+5, r20	; 0x05
     3ac:	5e 83       	std	Y+6, r21	; 0x06
     3ae:	6f 83       	std	Y+7, r22	; 0x07
     3b0:	78 87       	std	Y+8, r23	; 0x08
     3b2:	8b 87       	std	Y+11, r24	; 0x0b
     3b4:	9c 87       	std	Y+12, r25	; 0x0c
     3b6:	80 91 b1 01 	lds	r24, 0x01B1	; 0x8001b1 <_bme280_calib+0x10>
     3ba:	90 91 b2 01 	lds	r25, 0x01B2	; 0x8001b2 <_bme280_calib+0x11>
     3be:	19 2f       	mov	r17, r25
     3c0:	11 0f       	add	r17, r17
     3c2:	11 0b       	sbc	r17, r17
     3c4:	a8 2e       	mov	r10, r24
     3c6:	b9 2e       	mov	r11, r25
     3c8:	c1 2e       	mov	r12, r17
     3ca:	d1 2e       	mov	r13, r17
     3cc:	e1 2e       	mov	r14, r17
     3ce:	f1 2e       	mov	r15, r17
     3d0:	01 2f       	mov	r16, r17
     3d2:	8b 85       	ldd	r24, Y+11	; 0x0b
     3d4:	9c 85       	ldd	r25, Y+12	; 0x0c
     3d6:	0e 94 fc 0b 	call	0x17f8	; 0x17f8 <__muldi3>
     3da:	29 87       	std	Y+9, r18	; 0x09
     3dc:	3a 87       	std	Y+10, r19	; 0x0a
     3de:	4d 87       	std	Y+13, r20	; 0x0d
     3e0:	5e 87       	std	Y+14, r21	; 0x0e
     3e2:	86 2e       	mov	r8, r22
     3e4:	97 2e       	mov	r9, r23
     3e6:	8f 87       	std	Y+15, r24	; 0x0f
     3e8:	98 8b       	std	Y+16, r25	; 0x10
     3ea:	80 91 af 01 	lds	r24, 0x01AF	; 0x8001af <_bme280_calib+0xe>
     3ee:	90 91 b0 01 	lds	r25, 0x01B0	; 0x8001b0 <_bme280_calib+0xf>
     3f2:	19 2f       	mov	r17, r25
     3f4:	11 0f       	add	r17, r17
     3f6:	11 0b       	sbc	r17, r17
     3f8:	a8 2e       	mov	r10, r24
     3fa:	b9 2e       	mov	r11, r25
     3fc:	c1 2e       	mov	r12, r17
     3fe:	d1 2e       	mov	r13, r17
     400:	e1 2e       	mov	r14, r17
     402:	f1 2e       	mov	r15, r17
     404:	01 2f       	mov	r16, r17
     406:	29 81       	ldd	r18, Y+1	; 0x01
     408:	3a 81       	ldd	r19, Y+2	; 0x02
     40a:	44 2d       	mov	r20, r4
     40c:	55 2d       	mov	r21, r5
     40e:	66 2d       	mov	r22, r6
     410:	77 2d       	mov	r23, r7
     412:	82 2d       	mov	r24, r2
     414:	93 2d       	mov	r25, r3
     416:	0e 94 fc 0b 	call	0x17f8	; 0x17f8 <__muldi3>
     41a:	01 e1       	ldi	r16, 0x11	; 17
     41c:	0e 94 2c 0d 	call	0x1a58	; 0x1a58 <__ashldi3>
     420:	a2 2e       	mov	r10, r18
     422:	b3 2e       	mov	r11, r19
     424:	c4 2e       	mov	r12, r20
     426:	d5 2e       	mov	r13, r21
     428:	e6 2e       	mov	r14, r22
     42a:	f7 2e       	mov	r15, r23
     42c:	08 2f       	mov	r16, r24
     42e:	19 2f       	mov	r17, r25
     430:	29 85       	ldd	r18, Y+9	; 0x09
     432:	3a 85       	ldd	r19, Y+10	; 0x0a
     434:	4d 85       	ldd	r20, Y+13	; 0x0d
     436:	5e 85       	ldd	r21, Y+14	; 0x0e
     438:	68 2d       	mov	r22, r8
     43a:	79 2d       	mov	r23, r9
     43c:	8f 85       	ldd	r24, Y+15	; 0x0f
     43e:	98 89       	ldd	r25, Y+16	; 0x10
     440:	0e 94 63 0d 	call	0x1ac6	; 0x1ac6 <__adddi3>
     444:	82 2e       	mov	r8, r18
     446:	93 2e       	mov	r9, r19
     448:	49 87       	std	Y+9, r20	; 0x09
     44a:	5a 87       	std	Y+10, r21	; 0x0a
     44c:	b6 2f       	mov	r27, r22
     44e:	a7 2f       	mov	r26, r23
     450:	f8 2f       	mov	r31, r24
     452:	e9 2f       	mov	r30, r25
     454:	80 91 ad 01 	lds	r24, 0x01AD	; 0x8001ad <_bme280_calib+0xc>
     458:	90 91 ae 01 	lds	r25, 0x01AE	; 0x8001ae <_bme280_calib+0xd>
     45c:	19 2f       	mov	r17, r25
     45e:	11 0f       	add	r17, r17
     460:	11 0b       	sbc	r17, r17
     462:	28 2f       	mov	r18, r24
     464:	39 2f       	mov	r19, r25
     466:	41 2f       	mov	r20, r17
     468:	51 2f       	mov	r21, r17
     46a:	61 2f       	mov	r22, r17
     46c:	71 2f       	mov	r23, r17
     46e:	81 2f       	mov	r24, r17
     470:	91 2f       	mov	r25, r17
     472:	03 e2       	ldi	r16, 0x23	; 35
     474:	0e 94 2c 0d 	call	0x1a58	; 0x1a58 <__ashldi3>
     478:	a2 2e       	mov	r10, r18
     47a:	b3 2e       	mov	r11, r19
     47c:	c4 2e       	mov	r12, r20
     47e:	d5 2e       	mov	r13, r21
     480:	e6 2e       	mov	r14, r22
     482:	f7 2e       	mov	r15, r23
     484:	08 2f       	mov	r16, r24
     486:	19 2f       	mov	r17, r25
     488:	28 2d       	mov	r18, r8
     48a:	39 2d       	mov	r19, r9
     48c:	49 85       	ldd	r20, Y+9	; 0x09
     48e:	5a 85       	ldd	r21, Y+10	; 0x0a
     490:	6b 2f       	mov	r22, r27
     492:	7a 2f       	mov	r23, r26
     494:	8f 2f       	mov	r24, r31
     496:	9e 2f       	mov	r25, r30
     498:	0e 94 63 0d 	call	0x1ac6	; 0x1ac6 <__adddi3>
     49c:	29 87       	std	Y+9, r18	; 0x09
     49e:	3a 87       	std	Y+10, r19	; 0x0a
     4a0:	4d 87       	std	Y+13, r20	; 0x0d
     4a2:	5e 87       	std	Y+14, r21	; 0x0e
     4a4:	6f 87       	std	Y+15, r22	; 0x0f
     4a6:	78 8b       	std	Y+16, r23	; 0x10
     4a8:	8d 8b       	std	Y+21, r24	; 0x15
     4aa:	9e 8b       	std	Y+22, r25	; 0x16
     4ac:	80 91 ab 01 	lds	r24, 0x01AB	; 0x8001ab <_bme280_calib+0xa>
     4b0:	90 91 ac 01 	lds	r25, 0x01AC	; 0x8001ac <_bme280_calib+0xb>
     4b4:	19 2f       	mov	r17, r25
     4b6:	11 0f       	add	r17, r17
     4b8:	11 0b       	sbc	r17, r17
     4ba:	a8 2e       	mov	r10, r24
     4bc:	b9 2e       	mov	r11, r25
     4be:	c1 2e       	mov	r12, r17
     4c0:	d1 2e       	mov	r13, r17
     4c2:	e1 2e       	mov	r14, r17
     4c4:	f1 2e       	mov	r15, r17
     4c6:	01 2f       	mov	r16, r17
     4c8:	2b 81       	ldd	r18, Y+3	; 0x03
     4ca:	3c 81       	ldd	r19, Y+4	; 0x04
     4cc:	4d 81       	ldd	r20, Y+5	; 0x05
     4ce:	5e 81       	ldd	r21, Y+6	; 0x06
     4d0:	6f 81       	ldd	r22, Y+7	; 0x07
     4d2:	78 85       	ldd	r23, Y+8	; 0x08
     4d4:	8b 85       	ldd	r24, Y+11	; 0x0b
     4d6:	9c 85       	ldd	r25, Y+12	; 0x0c
     4d8:	0e 94 fc 0b 	call	0x17f8	; 0x17f8 <__muldi3>
     4dc:	08 e0       	ldi	r16, 0x08	; 8
     4de:	0e 94 45 0d 	call	0x1a8a	; 0x1a8a <__ashrdi3>
     4e2:	2b 83       	std	Y+3, r18	; 0x03
     4e4:	3c 83       	std	Y+4, r19	; 0x04
     4e6:	4d 83       	std	Y+5, r20	; 0x05
     4e8:	5e 83       	std	Y+6, r21	; 0x06
     4ea:	86 2e       	mov	r8, r22
     4ec:	97 2e       	mov	r9, r23
     4ee:	8f 83       	std	Y+7, r24	; 0x07
     4f0:	98 87       	std	Y+8, r25	; 0x08
     4f2:	80 91 a9 01 	lds	r24, 0x01A9	; 0x8001a9 <_bme280_calib+0x8>
     4f6:	90 91 aa 01 	lds	r25, 0x01AA	; 0x8001aa <_bme280_calib+0x9>
     4fa:	19 2f       	mov	r17, r25
     4fc:	11 0f       	add	r17, r17
     4fe:	11 0b       	sbc	r17, r17
     500:	a8 2e       	mov	r10, r24
     502:	b9 2e       	mov	r11, r25
     504:	c1 2e       	mov	r12, r17
     506:	d1 2e       	mov	r13, r17
     508:	e1 2e       	mov	r14, r17
     50a:	f1 2e       	mov	r15, r17
     50c:	01 2f       	mov	r16, r17
     50e:	29 81       	ldd	r18, Y+1	; 0x01
     510:	3a 81       	ldd	r19, Y+2	; 0x02
     512:	44 2d       	mov	r20, r4
     514:	55 2d       	mov	r21, r5
     516:	66 2d       	mov	r22, r6
     518:	77 2d       	mov	r23, r7
     51a:	82 2d       	mov	r24, r2
     51c:	93 2d       	mov	r25, r3
     51e:	0e 94 fc 0b 	call	0x17f8	; 0x17f8 <__muldi3>
     522:	0c e0       	ldi	r16, 0x0C	; 12
     524:	0e 94 2c 0d 	call	0x1a58	; 0x1a58 <__ashldi3>
     528:	a2 2e       	mov	r10, r18
     52a:	b3 2e       	mov	r11, r19
     52c:	c4 2e       	mov	r12, r20
     52e:	d5 2e       	mov	r13, r21
     530:	e6 2e       	mov	r14, r22
     532:	f7 2e       	mov	r15, r23
     534:	08 2f       	mov	r16, r24
     536:	19 2f       	mov	r17, r25
     538:	2b 81       	ldd	r18, Y+3	; 0x03
     53a:	3c 81       	ldd	r19, Y+4	; 0x04
     53c:	4d 81       	ldd	r20, Y+5	; 0x05
     53e:	5e 81       	ldd	r21, Y+6	; 0x06
     540:	68 2d       	mov	r22, r8
     542:	79 2d       	mov	r23, r9
     544:	8f 81       	ldd	r24, Y+7	; 0x07
     546:	98 85       	ldd	r25, Y+8	; 0x08
     548:	0e 94 63 0d 	call	0x1ac6	; 0x1ac6 <__adddi3>
     54c:	70 58       	subi	r23, 0x80	; 128
     54e:	8f 4f       	sbci	r24, 0xFF	; 255
     550:	9f 4f       	sbci	r25, 0xFF	; 255
     552:	e0 91 a7 01 	lds	r30, 0x01A7	; 0x8001a7 <_bme280_calib+0x6>
     556:	f0 91 a8 01 	lds	r31, 0x01A8	; 0x8001a8 <_bme280_calib+0x7>
     55a:	1f 01       	movw	r2, r30
     55c:	ae 2e       	mov	r10, r30
     55e:	b3 2c       	mov	r11, r3
     560:	c1 2c       	mov	r12, r1
     562:	d1 2c       	mov	r13, r1
     564:	e1 2c       	mov	r14, r1
     566:	f1 2c       	mov	r15, r1
     568:	00 e0       	ldi	r16, 0x00	; 0
     56a:	10 e0       	ldi	r17, 0x00	; 0
     56c:	0e 94 fc 0b 	call	0x17f8	; 0x17f8 <__muldi3>
     570:	01 e2       	ldi	r16, 0x21	; 33
     572:	0e 94 45 0d 	call	0x1a8a	; 0x1a8a <__ashrdi3>
     576:	42 2e       	mov	r4, r18
     578:	53 2e       	mov	r5, r19
     57a:	64 2e       	mov	r6, r20
     57c:	75 2e       	mov	r7, r21
     57e:	86 2e       	mov	r8, r22
     580:	97 2e       	mov	r9, r23
     582:	8a 83       	std	Y+2, r24	; 0x02
     584:	99 83       	std	Y+1, r25	; 0x01
     586:	a0 e0       	ldi	r26, 0x00	; 0
     588:	0e 94 75 0d 	call	0x1aea	; 0x1aea <__cmpdi2_s8>
     58c:	09 f4       	brne	.+2      	; 0x590 <__EEPROM_REGION_LENGTH__+0x190>
     58e:	09 c1       	rjmp	.+530    	; 0x7a2 <__EEPROM_REGION_LENGTH__+0x3a2>
     590:	80 e0       	ldi	r24, 0x00	; 0
     592:	90 e0       	ldi	r25, 0x00	; 0
     594:	a0 e1       	ldi	r26, 0x10	; 16
     596:	b0 e0       	ldi	r27, 0x00	; 0
     598:	29 89       	ldd	r18, Y+17	; 0x11
     59a:	3a 89       	ldd	r19, Y+18	; 0x12
     59c:	4b 89       	ldd	r20, Y+19	; 0x13
     59e:	5c 89       	ldd	r21, Y+20	; 0x14
     5a0:	82 1b       	sub	r24, r18
     5a2:	93 0b       	sbc	r25, r19
     5a4:	a4 0b       	sbc	r26, r20
     5a6:	b5 0b       	sbc	r27, r21
     5a8:	5c 01       	movw	r10, r24
     5aa:	6d 01       	movw	r12, r26
     5ac:	28 2f       	mov	r18, r24
     5ae:	3b 2d       	mov	r19, r11
     5b0:	4c 2d       	mov	r20, r12
     5b2:	5d 2d       	mov	r21, r13
     5b4:	60 e0       	ldi	r22, 0x00	; 0
     5b6:	70 e0       	ldi	r23, 0x00	; 0
     5b8:	80 e0       	ldi	r24, 0x00	; 0
     5ba:	90 e0       	ldi	r25, 0x00	; 0
     5bc:	0f e1       	ldi	r16, 0x1F	; 31
     5be:	0e 94 2c 0d 	call	0x1a58	; 0x1a58 <__ashldi3>
     5c2:	a9 84       	ldd	r10, Y+9	; 0x09
     5c4:	ba 84       	ldd	r11, Y+10	; 0x0a
     5c6:	cd 84       	ldd	r12, Y+13	; 0x0d
     5c8:	de 84       	ldd	r13, Y+14	; 0x0e
     5ca:	ef 84       	ldd	r14, Y+15	; 0x0f
     5cc:	f8 88       	ldd	r15, Y+16	; 0x10
     5ce:	0d 89       	ldd	r16, Y+21	; 0x15
     5d0:	1e 89       	ldd	r17, Y+22	; 0x16
     5d2:	0e 94 6c 0d 	call	0x1ad8	; 0x1ad8 <__subdi3>
     5d6:	0f 2e       	mov	r0, r31
     5d8:	f5 e3       	ldi	r31, 0x35	; 53
     5da:	af 2e       	mov	r10, r31
     5dc:	f0 2d       	mov	r31, r0
     5de:	0f 2e       	mov	r0, r31
     5e0:	fc e0       	ldi	r31, 0x0C	; 12
     5e2:	bf 2e       	mov	r11, r31
     5e4:	f0 2d       	mov	r31, r0
     5e6:	c1 2c       	mov	r12, r1
     5e8:	d1 2c       	mov	r13, r1
     5ea:	e1 2c       	mov	r14, r1
     5ec:	f1 2c       	mov	r15, r1
     5ee:	00 e0       	ldi	r16, 0x00	; 0
     5f0:	10 e0       	ldi	r17, 0x00	; 0
     5f2:	0e 94 fc 0b 	call	0x17f8	; 0x17f8 <__muldi3>
     5f6:	a4 2c       	mov	r10, r4
     5f8:	b5 2c       	mov	r11, r5
     5fa:	c6 2c       	mov	r12, r6
     5fc:	d7 2c       	mov	r13, r7
     5fe:	e8 2c       	mov	r14, r8
     600:	f9 2c       	mov	r15, r9
     602:	0a 81       	ldd	r16, Y+2	; 0x02
     604:	19 81       	ldd	r17, Y+1	; 0x01
     606:	0e 94 57 0c 	call	0x18ae	; 0x18ae <__divdi3>
     60a:	29 83       	std	Y+1, r18	; 0x01
     60c:	3a 83       	std	Y+2, r19	; 0x02
     60e:	4b 83       	std	Y+3, r20	; 0x03
     610:	5c 83       	std	Y+4, r21	; 0x04
     612:	6d 83       	std	Y+5, r22	; 0x05
     614:	7e 83       	std	Y+6, r23	; 0x06
     616:	8f 83       	std	Y+7, r24	; 0x07
     618:	98 87       	std	Y+8, r25	; 0x08
     61a:	a0 91 b7 01 	lds	r26, 0x01B7	; 0x8001b7 <_bme280_calib+0x16>
     61e:	b0 91 b8 01 	lds	r27, 0x01B8	; 0x8001b8 <_bme280_calib+0x17>
     622:	eb 2f       	mov	r30, r27
     624:	ee 0f       	add	r30, r30
     626:	ee 0b       	sbc	r30, r30
     628:	0d e0       	ldi	r16, 0x0D	; 13
     62a:	0e 94 45 0d 	call	0x1a8a	; 0x1a8a <__ashrdi3>
     62e:	22 2e       	mov	r2, r18
     630:	33 2e       	mov	r3, r19
     632:	44 2e       	mov	r4, r20
     634:	55 2e       	mov	r5, r21
     636:	66 2e       	mov	r6, r22
     638:	77 2e       	mov	r7, r23
     63a:	88 2e       	mov	r8, r24
     63c:	99 2e       	mov	r9, r25
     63e:	a2 2e       	mov	r10, r18
     640:	b3 2e       	mov	r11, r19
     642:	c4 2e       	mov	r12, r20
     644:	d5 2e       	mov	r13, r21
     646:	e6 2e       	mov	r14, r22
     648:	f7 2e       	mov	r15, r23
     64a:	08 2f       	mov	r16, r24
     64c:	19 2f       	mov	r17, r25
     64e:	2a 2f       	mov	r18, r26
     650:	3b 2f       	mov	r19, r27
     652:	4e 2f       	mov	r20, r30
     654:	5e 2f       	mov	r21, r30
     656:	6e 2f       	mov	r22, r30
     658:	7e 2f       	mov	r23, r30
     65a:	8e 2f       	mov	r24, r30
     65c:	9e 2f       	mov	r25, r30
     65e:	0e 94 fc 0b 	call	0x17f8	; 0x17f8 <__muldi3>
     662:	a2 2e       	mov	r10, r18
     664:	b3 2e       	mov	r11, r19
     666:	c4 2e       	mov	r12, r20
     668:	d5 2e       	mov	r13, r21
     66a:	e6 2e       	mov	r14, r22
     66c:	f7 2e       	mov	r15, r23
     66e:	08 2f       	mov	r16, r24
     670:	19 2f       	mov	r17, r25
     672:	22 2d       	mov	r18, r2
     674:	33 2d       	mov	r19, r3
     676:	44 2d       	mov	r20, r4
     678:	55 2d       	mov	r21, r5
     67a:	66 2d       	mov	r22, r6
     67c:	77 2d       	mov	r23, r7
     67e:	88 2d       	mov	r24, r8
     680:	99 2d       	mov	r25, r9
     682:	0e 94 fc 0b 	call	0x17f8	; 0x17f8 <__muldi3>
     686:	09 e1       	ldi	r16, 0x19	; 25
     688:	0e 94 45 0d 	call	0x1a8a	; 0x1a8a <__ashrdi3>
     68c:	52 2e       	mov	r5, r18
     68e:	43 2e       	mov	r4, r19
     690:	34 2e       	mov	r3, r20
     692:	25 2e       	mov	r2, r21
     694:	6b 87       	std	Y+11, r22	; 0x0b
     696:	7c 87       	std	Y+12, r23	; 0x0c
     698:	89 87       	std	Y+9, r24	; 0x09
     69a:	9a 87       	std	Y+10, r25	; 0x0a
     69c:	80 91 b5 01 	lds	r24, 0x01B5	; 0x8001b5 <_bme280_calib+0x14>
     6a0:	90 91 b6 01 	lds	r25, 0x01B6	; 0x8001b6 <_bme280_calib+0x15>
     6a4:	19 2f       	mov	r17, r25
     6a6:	11 0f       	add	r17, r17
     6a8:	11 0b       	sbc	r17, r17
     6aa:	a8 2e       	mov	r10, r24
     6ac:	b9 2e       	mov	r11, r25
     6ae:	c1 2e       	mov	r12, r17
     6b0:	d1 2e       	mov	r13, r17
     6b2:	e1 2e       	mov	r14, r17
     6b4:	f1 2e       	mov	r15, r17
     6b6:	01 2f       	mov	r16, r17
     6b8:	29 81       	ldd	r18, Y+1	; 0x01
     6ba:	3a 81       	ldd	r19, Y+2	; 0x02
     6bc:	4b 81       	ldd	r20, Y+3	; 0x03
     6be:	5c 81       	ldd	r21, Y+4	; 0x04
     6c0:	6d 81       	ldd	r22, Y+5	; 0x05
     6c2:	7e 81       	ldd	r23, Y+6	; 0x06
     6c4:	8f 81       	ldd	r24, Y+7	; 0x07
     6c6:	98 85       	ldd	r25, Y+8	; 0x08
     6c8:	0e 94 fc 0b 	call	0x17f8	; 0x17f8 <__muldi3>
     6cc:	03 e1       	ldi	r16, 0x13	; 19
     6ce:	0e 94 45 0d 	call	0x1a8a	; 0x1a8a <__ashrdi3>
     6d2:	62 2e       	mov	r6, r18
     6d4:	73 2e       	mov	r7, r19
     6d6:	84 2e       	mov	r8, r20
     6d8:	95 2e       	mov	r9, r21
     6da:	b6 2f       	mov	r27, r22
     6dc:	a7 2f       	mov	r26, r23
     6de:	f8 2f       	mov	r31, r24
     6e0:	e9 2f       	mov	r30, r25
     6e2:	29 81       	ldd	r18, Y+1	; 0x01
     6e4:	3a 81       	ldd	r19, Y+2	; 0x02
     6e6:	4b 81       	ldd	r20, Y+3	; 0x03
     6e8:	5c 81       	ldd	r21, Y+4	; 0x04
     6ea:	6d 81       	ldd	r22, Y+5	; 0x05
     6ec:	7e 81       	ldd	r23, Y+6	; 0x06
     6ee:	8f 81       	ldd	r24, Y+7	; 0x07
     6f0:	98 85       	ldd	r25, Y+8	; 0x08
     6f2:	a5 2c       	mov	r10, r5
     6f4:	b4 2c       	mov	r11, r4
     6f6:	c3 2c       	mov	r12, r3
     6f8:	d2 2c       	mov	r13, r2
     6fa:	eb 84       	ldd	r14, Y+11	; 0x0b
     6fc:	fc 84       	ldd	r15, Y+12	; 0x0c
     6fe:	09 85       	ldd	r16, Y+9	; 0x09
     700:	1a 85       	ldd	r17, Y+10	; 0x0a
     702:	0e 94 63 0d 	call	0x1ac6	; 0x1ac6 <__adddi3>
     706:	a2 2e       	mov	r10, r18
     708:	b3 2e       	mov	r11, r19
     70a:	c4 2e       	mov	r12, r20
     70c:	d5 2e       	mov	r13, r21
     70e:	e6 2e       	mov	r14, r22
     710:	f7 2e       	mov	r15, r23
     712:	08 2f       	mov	r16, r24
     714:	19 2f       	mov	r17, r25
     716:	26 2d       	mov	r18, r6
     718:	37 2d       	mov	r19, r7
     71a:	48 2d       	mov	r20, r8
     71c:	59 2d       	mov	r21, r9
     71e:	6b 2f       	mov	r22, r27
     720:	7a 2f       	mov	r23, r26
     722:	8f 2f       	mov	r24, r31
     724:	9e 2f       	mov	r25, r30
     726:	0e 94 63 0d 	call	0x1ac6	; 0x1ac6 <__adddi3>
     72a:	08 e0       	ldi	r16, 0x08	; 8
     72c:	0e 94 45 0d 	call	0x1a8a	; 0x1a8a <__ashrdi3>
     730:	82 2e       	mov	r8, r18
     732:	93 2e       	mov	r9, r19
     734:	64 2e       	mov	r6, r20
     736:	75 2e       	mov	r7, r21
     738:	b6 2f       	mov	r27, r22
     73a:	a7 2f       	mov	r26, r23
     73c:	f8 2f       	mov	r31, r24
     73e:	e9 2f       	mov	r30, r25
     740:	40 91 b3 01 	lds	r20, 0x01B3	; 0x8001b3 <_bme280_calib+0x12>
     744:	50 91 b4 01 	lds	r21, 0x01B4	; 0x8001b4 <_bme280_calib+0x13>
     748:	95 2f       	mov	r25, r21
     74a:	99 0f       	add	r25, r25
     74c:	99 0b       	sbc	r25, r25
     74e:	24 2f       	mov	r18, r20
     750:	35 2f       	mov	r19, r21
     752:	49 2f       	mov	r20, r25
     754:	59 2f       	mov	r21, r25
     756:	69 2f       	mov	r22, r25
     758:	79 2f       	mov	r23, r25
     75a:	89 2f       	mov	r24, r25
     75c:	04 e0       	ldi	r16, 0x04	; 4
     75e:	0e 94 2c 0d 	call	0x1a58	; 0x1a58 <__ashldi3>
     762:	a2 2e       	mov	r10, r18
     764:	b3 2e       	mov	r11, r19
     766:	c4 2e       	mov	r12, r20
     768:	d5 2e       	mov	r13, r21
     76a:	e6 2e       	mov	r14, r22
     76c:	f7 2e       	mov	r15, r23
     76e:	08 2f       	mov	r16, r24
     770:	19 2f       	mov	r17, r25
     772:	28 2d       	mov	r18, r8
     774:	39 2d       	mov	r19, r9
     776:	46 2d       	mov	r20, r6
     778:	57 2d       	mov	r21, r7
     77a:	6b 2f       	mov	r22, r27
     77c:	7a 2f       	mov	r23, r26
     77e:	8f 2f       	mov	r24, r31
     780:	9e 2f       	mov	r25, r30
     782:	0e 94 63 0d 	call	0x1ac6	; 0x1ac6 <__adddi3>
     786:	0e 94 29 0a 	call	0x1452	; 0x1452 <__floatdisf>
     78a:	20 e0       	ldi	r18, 0x00	; 0
     78c:	30 e0       	ldi	r19, 0x00	; 0
     78e:	40 e8       	ldi	r20, 0x80	; 128
     790:	5b e3       	ldi	r21, 0x3B	; 59
     792:	0e 94 0b 0b 	call	0x1616	; 0x1616 <__mulsf3>
     796:	08 c0       	rjmp	.+16     	; 0x7a8 <__EEPROM_REGION_LENGTH__+0x3a8>
     798:	60 e0       	ldi	r22, 0x00	; 0
     79a:	70 e0       	ldi	r23, 0x00	; 0
     79c:	80 ec       	ldi	r24, 0xC0	; 192
     79e:	9f e7       	ldi	r25, 0x7F	; 127
     7a0:	03 c0       	rjmp	.+6      	; 0x7a8 <__EEPROM_REGION_LENGTH__+0x3a8>
     7a2:	60 e0       	ldi	r22, 0x00	; 0
     7a4:	70 e0       	ldi	r23, 0x00	; 0
     7a6:	cb 01       	movw	r24, r22
     7a8:	6e 96       	adiw	r28, 0x1e	; 30
     7aa:	0f b6       	in	r0, 0x3f	; 63
     7ac:	f8 94       	cli
     7ae:	de bf       	out	0x3e, r29	; 62
     7b0:	0f be       	out	0x3f, r0	; 63
     7b2:	cd bf       	out	0x3d, r28	; 61
     7b4:	df 91       	pop	r29
     7b6:	cf 91       	pop	r28
     7b8:	1f 91       	pop	r17
     7ba:	0f 91       	pop	r16
     7bc:	ff 90       	pop	r15
     7be:	ef 90       	pop	r14
     7c0:	df 90       	pop	r13
     7c2:	cf 90       	pop	r12
     7c4:	bf 90       	pop	r11
     7c6:	af 90       	pop	r10
     7c8:	9f 90       	pop	r9
     7ca:	8f 90       	pop	r8
     7cc:	7f 90       	pop	r7
     7ce:	6f 90       	pop	r6
     7d0:	5f 90       	pop	r5
     7d2:	4f 90       	pop	r4
     7d4:	3f 90       	pop	r3
     7d6:	2f 90       	pop	r2
     7d8:	08 95       	ret

000007da <read16_LE>:
     7da:	0e 94 68 00 	call	0xd0	; 0xd0 <bme280_read2Byte>
     7de:	98 27       	eor	r25, r24
     7e0:	89 27       	eor	r24, r25
     7e2:	98 27       	eor	r25, r24
     7e4:	08 95       	ret

000007e6 <readS16_LE>:
     7e6:	0e 94 ed 03 	call	0x7da	; 0x7da <read16_LE>
     7ea:	08 95       	ret

000007ec <bme280_readCoefficients>:
     7ec:	0f 93       	push	r16
     7ee:	1f 93       	push	r17
     7f0:	cf 93       	push	r28
     7f2:	df 93       	push	r29
     7f4:	88 e8       	ldi	r24, 0x88	; 136
     7f6:	0e 94 ed 03 	call	0x7da	; 0x7da <read16_LE>
     7fa:	c1 ea       	ldi	r28, 0xA1	; 161
     7fc:	d1 e0       	ldi	r29, 0x01	; 1
     7fe:	99 83       	std	Y+1, r25	; 0x01
     800:	88 83       	st	Y, r24
     802:	8a e8       	ldi	r24, 0x8A	; 138
     804:	0e 94 f3 03 	call	0x7e6	; 0x7e6 <readS16_LE>
     808:	9b 83       	std	Y+3, r25	; 0x03
     80a:	8a 83       	std	Y+2, r24	; 0x02
     80c:	8c e8       	ldi	r24, 0x8C	; 140
     80e:	0e 94 f3 03 	call	0x7e6	; 0x7e6 <readS16_LE>
     812:	9d 83       	std	Y+5, r25	; 0x05
     814:	8c 83       	std	Y+4, r24	; 0x04
     816:	8e e8       	ldi	r24, 0x8E	; 142
     818:	0e 94 ed 03 	call	0x7da	; 0x7da <read16_LE>
     81c:	9f 83       	std	Y+7, r25	; 0x07
     81e:	8e 83       	std	Y+6, r24	; 0x06
     820:	80 e9       	ldi	r24, 0x90	; 144
     822:	0e 94 f3 03 	call	0x7e6	; 0x7e6 <readS16_LE>
     826:	99 87       	std	Y+9, r25	; 0x09
     828:	88 87       	std	Y+8, r24	; 0x08
     82a:	82 e9       	ldi	r24, 0x92	; 146
     82c:	0e 94 f3 03 	call	0x7e6	; 0x7e6 <readS16_LE>
     830:	9b 87       	std	Y+11, r25	; 0x0b
     832:	8a 87       	std	Y+10, r24	; 0x0a
     834:	84 e9       	ldi	r24, 0x94	; 148
     836:	0e 94 f3 03 	call	0x7e6	; 0x7e6 <readS16_LE>
     83a:	9d 87       	std	Y+13, r25	; 0x0d
     83c:	8c 87       	std	Y+12, r24	; 0x0c
     83e:	86 e9       	ldi	r24, 0x96	; 150
     840:	0e 94 f3 03 	call	0x7e6	; 0x7e6 <readS16_LE>
     844:	9f 87       	std	Y+15, r25	; 0x0f
     846:	8e 87       	std	Y+14, r24	; 0x0e
     848:	88 e9       	ldi	r24, 0x98	; 152
     84a:	0e 94 f3 03 	call	0x7e6	; 0x7e6 <readS16_LE>
     84e:	99 8b       	std	Y+17, r25	; 0x11
     850:	88 8b       	std	Y+16, r24	; 0x10
     852:	8a e9       	ldi	r24, 0x9A	; 154
     854:	0e 94 f3 03 	call	0x7e6	; 0x7e6 <readS16_LE>
     858:	9b 8b       	std	Y+19, r25	; 0x13
     85a:	8a 8b       	std	Y+18, r24	; 0x12
     85c:	8c e9       	ldi	r24, 0x9C	; 156
     85e:	0e 94 f3 03 	call	0x7e6	; 0x7e6 <readS16_LE>
     862:	9d 8b       	std	Y+21, r25	; 0x15
     864:	8c 8b       	std	Y+20, r24	; 0x14
     866:	8e e9       	ldi	r24, 0x9E	; 158
     868:	0e 94 f3 03 	call	0x7e6	; 0x7e6 <readS16_LE>
     86c:	9f 8b       	std	Y+23, r25	; 0x17
     86e:	8e 8b       	std	Y+22, r24	; 0x16
     870:	81 ea       	ldi	r24, 0xA1	; 161
     872:	0e 94 53 00 	call	0xa6	; 0xa6 <bme280_read1Byte>
     876:	88 8f       	std	Y+24, r24	; 0x18
     878:	81 ee       	ldi	r24, 0xE1	; 225
     87a:	0e 94 f3 03 	call	0x7e6	; 0x7e6 <readS16_LE>
     87e:	9a 8f       	std	Y+26, r25	; 0x1a
     880:	89 8f       	std	Y+25, r24	; 0x19
     882:	83 ee       	ldi	r24, 0xE3	; 227
     884:	0e 94 53 00 	call	0xa6	; 0xa6 <bme280_read1Byte>
     888:	8b 8f       	std	Y+27, r24	; 0x1b
     88a:	84 ee       	ldi	r24, 0xE4	; 228
     88c:	0e 94 53 00 	call	0xa6	; 0xa6 <bme280_read1Byte>
     890:	90 e1       	ldi	r25, 0x10	; 16
     892:	89 9f       	mul	r24, r25
     894:	80 01       	movw	r16, r0
     896:	11 24       	eor	r1, r1
     898:	85 ee       	ldi	r24, 0xE5	; 229
     89a:	0e 94 53 00 	call	0xa6	; 0xa6 <bme280_read1Byte>
     89e:	8f 70       	andi	r24, 0x0F	; 15
     8a0:	08 2b       	or	r16, r24
     8a2:	1d 8f       	std	Y+29, r17	; 0x1d
     8a4:	0c 8f       	std	Y+28, r16	; 0x1c
     8a6:	86 ee       	ldi	r24, 0xE6	; 230
     8a8:	0e 94 53 00 	call	0xa6	; 0xa6 <bme280_read1Byte>
     8ac:	90 e1       	ldi	r25, 0x10	; 16
     8ae:	89 9f       	mul	r24, r25
     8b0:	80 01       	movw	r16, r0
     8b2:	11 24       	eor	r1, r1
     8b4:	85 ee       	ldi	r24, 0xE5	; 229
     8b6:	0e 94 53 00 	call	0xa6	; 0xa6 <bme280_read1Byte>
     8ba:	82 95       	swap	r24
     8bc:	8f 70       	andi	r24, 0x0F	; 15
     8be:	08 2b       	or	r16, r24
     8c0:	1f 8f       	std	Y+31, r17	; 0x1f
     8c2:	0e 8f       	std	Y+30, r16	; 0x1e
     8c4:	87 ee       	ldi	r24, 0xE7	; 231
     8c6:	0e 94 53 00 	call	0xa6	; 0xa6 <bme280_read1Byte>
     8ca:	88 a3       	std	Y+32, r24	; 0x20
     8cc:	df 91       	pop	r29
     8ce:	cf 91       	pop	r28
     8d0:	1f 91       	pop	r17
     8d2:	0f 91       	pop	r16
     8d4:	08 95       	ret

000008d6 <bme280_init>:
     8d6:	80 ed       	ldi	r24, 0xD0	; 208
     8d8:	0e 94 53 00 	call	0xa6	; 0xa6 <bme280_read1Byte>
     8dc:	80 36       	cpi	r24, 0x60	; 96
     8de:	99 f4       	brne	.+38     	; 0x906 <__stack+0x7>
     8e0:	8e ee       	ldi	r24, 0xEE	; 238
     8e2:	0e 94 65 05 	call	0xaca	; 0xaca <i2c_start>
     8e6:	85 ef       	ldi	r24, 0xF5	; 245
     8e8:	0e 94 96 05 	call	0xb2c	; 0xb2c <i2c_byte>
     8ec:	8c e6       	ldi	r24, 0x6C	; 108
     8ee:	0e 94 96 05 	call	0xb2c	; 0xb2c <i2c_byte>
     8f2:	84 ef       	ldi	r24, 0xF4	; 244
     8f4:	0e 94 96 05 	call	0xb2c	; 0xb2c <i2c_byte>
     8f8:	87 eb       	ldi	r24, 0xB7	; 183
     8fa:	0e 94 96 05 	call	0xb2c	; 0xb2c <i2c_byte>
     8fe:	0e 94 92 05 	call	0xb24	; 0xb24 <i2c_stop>
     902:	0e 94 f6 03 	call	0x7ec	; 0x7ec <bme280_readCoefficients>
     906:	08 95       	ret

00000908 <GPIO_config_output>:
     908:	fc 01       	movw	r30, r24
     90a:	40 81       	ld	r20, Z
     90c:	21 e0       	ldi	r18, 0x01	; 1
     90e:	30 e0       	ldi	r19, 0x00	; 0
     910:	02 c0       	rjmp	.+4      	; 0x916 <GPIO_config_output+0xe>
     912:	22 0f       	add	r18, r18
     914:	33 1f       	adc	r19, r19
     916:	6a 95       	dec	r22
     918:	e2 f7       	brpl	.-8      	; 0x912 <GPIO_config_output+0xa>
     91a:	24 2b       	or	r18, r20
     91c:	20 83       	st	Z, r18
     91e:	08 95       	ret

00000920 <GPIO_write_low>:
     920:	fc 01       	movw	r30, r24
     922:	90 81       	ld	r25, Z
     924:	21 e0       	ldi	r18, 0x01	; 1
     926:	30 e0       	ldi	r19, 0x00	; 0
     928:	02 c0       	rjmp	.+4      	; 0x92e <GPIO_write_low+0xe>
     92a:	22 0f       	add	r18, r18
     92c:	33 1f       	adc	r19, r19
     92e:	6a 95       	dec	r22
     930:	e2 f7       	brpl	.-8      	; 0x92a <GPIO_write_low+0xa>
     932:	20 95       	com	r18
     934:	29 23       	and	r18, r25
     936:	20 83       	st	Z, r18
     938:	08 95       	ret

0000093a <GPIO_write_high>:
     93a:	fc 01       	movw	r30, r24
     93c:	40 81       	ld	r20, Z
     93e:	21 e0       	ldi	r18, 0x01	; 1
     940:	30 e0       	ldi	r19, 0x00	; 0
     942:	02 c0       	rjmp	.+4      	; 0x948 <GPIO_write_high+0xe>
     944:	22 0f       	add	r18, r18
     946:	33 1f       	adc	r19, r19
     948:	6a 95       	dec	r22
     94a:	e2 f7       	brpl	.-8      	; 0x944 <GPIO_write_high+0xa>
     94c:	24 2b       	or	r18, r20
     94e:	20 83       	st	Z, r18
     950:	08 95       	ret

00000952 <__vector_11>:
int counts;
float dist;
uint16_t us_per_count;

ISR(TIMER1_COMPA_vect)
{
     952:	1f 92       	push	r1
     954:	0f 92       	push	r0
     956:	0f b6       	in	r0, 0x3f	; 63
     958:	0f 92       	push	r0
     95a:	11 24       	eor	r1, r1
     95c:	8f 93       	push	r24
     95e:	9f 93       	push	r25

    //Generate a 12us pulse to trigger the HC-SR04
    HCSR_TRIGGER_PORT ^= (1 << HCSR_TRIGGER);
     960:	95 b1       	in	r25, 0x05	; 5
     962:	88 e0       	ldi	r24, 0x08	; 8
     964:	98 27       	eor	r25, r24
     966:	95 b9       	out	0x05, r25	; 5
	#else
		//round up by default
		__ticks_dc = (uint32_t)(ceil(fabs(__tmp)));
	#endif

	__builtin_avr_delay_cycles(__ticks_dc);
     968:	94 e0       	ldi	r25, 0x04	; 4
     96a:	9a 95       	dec	r25
     96c:	f1 f7       	brne	.-4      	; 0x96a <__vector_11+0x18>
    _delay_us(12);
    HCSR_TRIGGER_PORT ^= (1 << HCSR_TRIGGER);
     96e:	95 b1       	in	r25, 0x05	; 5
     970:	89 27       	eor	r24, r25
     972:	85 b9       	out	0x05, r24	; 5
}
     974:	9f 91       	pop	r25
     976:	8f 91       	pop	r24
     978:	0f 90       	pop	r0
     97a:	0f be       	out	0x3f, r0	; 63
     97c:	0f 90       	pop	r0
     97e:	1f 90       	pop	r1
     980:	18 95       	reti

00000982 <__vector_10>:

ISR(TIMER1_CAPT_vect)
{
     982:	1f 92       	push	r1
     984:	0f 92       	push	r0
     986:	0f b6       	in	r0, 0x3f	; 63
     988:	0f 92       	push	r0
     98a:	11 24       	eor	r1, r1
     98c:	cf 92       	push	r12
     98e:	df 92       	push	r13
     990:	ef 92       	push	r14
     992:	ff 92       	push	r15
     994:	2f 93       	push	r18
     996:	3f 93       	push	r19
     998:	4f 93       	push	r20
     99a:	5f 93       	push	r21
     99c:	6f 93       	push	r22
     99e:	7f 93       	push	r23
     9a0:	8f 93       	push	r24
     9a2:	9f 93       	push	r25
     9a4:	af 93       	push	r26
     9a6:	bf 93       	push	r27
     9a8:	cf 93       	push	r28
     9aa:	df 93       	push	r29
     9ac:	ef 93       	push	r30
     9ae:	ff 93       	push	r31

    if (TCCR1B & (1 << ICES1))
     9b0:	80 91 81 00 	lds	r24, 0x0081	; 0x800081 <__TEXT_REGION_LENGTH__+0x7f8081>
     9b4:	86 ff       	sbrs	r24, 6
     9b6:	0e c0       	rjmp	.+28     	; 0x9d4 <__vector_10+0x52>
    {

        TCCR1B &= ~(1 << ICES1);
     9b8:	e1 e8       	ldi	r30, 0x81	; 129
     9ba:	f0 e0       	ldi	r31, 0x00	; 0
     9bc:	80 81       	ld	r24, Z
     9be:	8f 7b       	andi	r24, 0xBF	; 191
     9c0:	80 83       	st	Z, r24
        rising = ICR1;
     9c2:	80 91 86 00 	lds	r24, 0x0086	; 0x800086 <__TEXT_REGION_LENGTH__+0x7f8086>
     9c6:	90 91 87 00 	lds	r25, 0x0087	; 0x800087 <__TEXT_REGION_LENGTH__+0x7f8087>
     9ca:	90 93 d1 01 	sts	0x01D1, r25	; 0x8001d1 <rising+0x1>
     9ce:	80 93 d0 01 	sts	0x01D0, r24	; 0x8001d0 <rising>
     9d2:	40 c0       	rjmp	.+128    	; 0xa54 <__vector_10+0xd2>
    }
    else
    {
        TCCR1B |= (1 << ICES1);
     9d4:	e1 e8       	ldi	r30, 0x81	; 129
     9d6:	f0 e0       	ldi	r31, 0x00	; 0
     9d8:	80 81       	ld	r24, Z
     9da:	80 64       	ori	r24, 0x40	; 64
     9dc:	80 83       	st	Z, r24
        falling = ICR1;
     9de:	60 91 86 00 	lds	r22, 0x0086	; 0x800086 <__TEXT_REGION_LENGTH__+0x7f8086>
     9e2:	70 91 87 00 	lds	r23, 0x0087	; 0x800087 <__TEXT_REGION_LENGTH__+0x7f8087>
     9e6:	70 93 c7 01 	sts	0x01C7, r23	; 0x8001c7 <falling+0x1>
     9ea:	60 93 c6 01 	sts	0x01C6, r22	; 0x8001c6 <falling>
        counts = falling - rising;
     9ee:	80 91 d0 01 	lds	r24, 0x01D0	; 0x8001d0 <rising>
     9f2:	90 91 d1 01 	lds	r25, 0x01D1	; 0x8001d1 <rising+0x1>
     9f6:	eb 01       	movw	r28, r22
     9f8:	c8 1b       	sub	r28, r24
     9fa:	d9 0b       	sbc	r29, r25
     9fc:	d0 93 cf 01 	sts	0x01CF, r29	; 0x8001cf <counts+0x1>
     a00:	c0 93 ce 01 	sts	0x01CE, r28	; 0x8001ce <counts>
        dist = (float)us_per_count * counts * 10 / 580;
     a04:	60 91 cc 01 	lds	r22, 0x01CC	; 0x8001cc <us_per_count>
     a08:	70 91 cd 01 	lds	r23, 0x01CD	; 0x8001cd <us_per_count+0x1>
     a0c:	80 e0       	ldi	r24, 0x00	; 0
     a0e:	90 e0       	ldi	r25, 0x00	; 0
     a10:	0e 94 2f 0a 	call	0x145e	; 0x145e <__floatunsisf>
     a14:	6b 01       	movw	r12, r22
     a16:	7c 01       	movw	r14, r24
     a18:	be 01       	movw	r22, r28
     a1a:	dd 0f       	add	r29, r29
     a1c:	88 0b       	sbc	r24, r24
     a1e:	99 0b       	sbc	r25, r25
     a20:	0e 94 31 0a 	call	0x1462	; 0x1462 <__floatsisf>
     a24:	a7 01       	movw	r20, r14
     a26:	96 01       	movw	r18, r12
     a28:	0e 94 0b 0b 	call	0x1616	; 0x1616 <__mulsf3>
     a2c:	20 e0       	ldi	r18, 0x00	; 0
     a2e:	30 e0       	ldi	r19, 0x00	; 0
     a30:	40 e2       	ldi	r20, 0x20	; 32
     a32:	51 e4       	ldi	r21, 0x41	; 65
     a34:	0e 94 0b 0b 	call	0x1616	; 0x1616 <__mulsf3>
     a38:	20 e0       	ldi	r18, 0x00	; 0
     a3a:	30 e0       	ldi	r19, 0x00	; 0
     a3c:	41 e1       	ldi	r20, 0x11	; 17
     a3e:	54 e4       	ldi	r21, 0x44	; 68
     a40:	0e 94 88 09 	call	0x1310	; 0x1310 <__divsf3>
     a44:	60 93 c8 01 	sts	0x01C8, r22	; 0x8001c8 <dist>
     a48:	70 93 c9 01 	sts	0x01C9, r23	; 0x8001c9 <dist+0x1>
     a4c:	80 93 ca 01 	sts	0x01CA, r24	; 0x8001ca <dist+0x2>
     a50:	90 93 cb 01 	sts	0x01CB, r25	; 0x8001cb <dist+0x3>
    }
}
     a54:	ff 91       	pop	r31
     a56:	ef 91       	pop	r30
     a58:	df 91       	pop	r29
     a5a:	cf 91       	pop	r28
     a5c:	bf 91       	pop	r27
     a5e:	af 91       	pop	r26
     a60:	9f 91       	pop	r25
     a62:	8f 91       	pop	r24
     a64:	7f 91       	pop	r23
     a66:	6f 91       	pop	r22
     a68:	5f 91       	pop	r21
     a6a:	4f 91       	pop	r20
     a6c:	3f 91       	pop	r19
     a6e:	2f 91       	pop	r18
     a70:	ff 90       	pop	r15
     a72:	ef 90       	pop	r14
     a74:	df 90       	pop	r13
     a76:	cf 90       	pop	r12
     a78:	0f 90       	pop	r0
     a7a:	0f be       	out	0x3f, r0	; 63
     a7c:	0f 90       	pop	r0
     a7e:	1f 90       	pop	r1
     a80:	18 95       	reti

00000a82 <init_ultrasonic_sensor>:

void init_ultrasonic_sensor()
{
    // Trigger pin as output, connected to the sensor Pin B3
    HCSR_TRIGGER_DDR |= (1 << HCSR_TRIGGER);
     a82:	84 b1       	in	r24, 0x04	; 4
     a84:	88 60       	ori	r24, 0x08	; 8
     a86:	84 b9       	out	0x04, r24	; 4

    //****TIMER1 INIT****//

    //noice reduction enable
    TCCR1B |= (1 << ICNC1);
     a88:	e1 e8       	ldi	r30, 0x81	; 129
     a8a:	f0 e0       	ldi	r31, 0x00	; 0
     a8c:	80 81       	ld	r24, Z
     a8e:	80 68       	ori	r24, 0x80	; 128
     a90:	80 83       	st	Z, r24

    //Prescale to 64
    TCCR1B |= (1 << CS10) | (1 << CS11);
     a92:	80 81       	ld	r24, Z
     a94:	83 60       	ori	r24, 0x03	; 3
     a96:	80 83       	st	Z, r24

    //select CTC mode
    TCCR1B |= (1 << WGM12);
     a98:	80 81       	ld	r24, Z
     a9a:	88 60       	ori	r24, 0x08	; 8
     a9c:	80 83       	st	Z, r24

    //read Int. at: rising edge, falling edge
    TIMSK1 |= (1 << ICIE1) | (1 << OCIE1A);
     a9e:	af e6       	ldi	r26, 0x6F	; 111
     aa0:	b0 e0       	ldi	r27, 0x00	; 0
     aa2:	8c 91       	ld	r24, X
     aa4:	82 62       	ori	r24, 0x22	; 34
     aa6:	8c 93       	st	X, r24

    //read Int. at rising edge
    TCCR1B |= (1 << ICES1);
     aa8:	80 81       	ld	r24, Z
     aaa:	80 64       	ori	r24, 0x40	; 64
     aac:	80 83       	st	Z, r24

    //calculate TOP (70ms runtime for one cycle): 16MHz/64 = 25000 count/sec. = 25000/1000 = 2500 count/us / 100*70 = 17500 count/70ms
    OCR1A = 17500;
     aae:	8c e5       	ldi	r24, 0x5C	; 92
     ab0:	94 e4       	ldi	r25, 0x44	; 68
     ab2:	90 93 89 00 	sts	0x0089, r25	; 0x800089 <__TEXT_REGION_LENGTH__+0x7f8089>
     ab6:	80 93 88 00 	sts	0x0088, r24	; 0x800088 <__TEXT_REGION_LENGTH__+0x7f8088>

    //CPU-speed / Prescale = cycles/sec. 1sec/ freq./sec. = 4 (t= 4us/cycle)
    us_per_count = 4;
     aba:	84 e0       	ldi	r24, 0x04	; 4
     abc:	90 e0       	ldi	r25, 0x00	; 0
     abe:	90 93 cd 01 	sts	0x01CD, r25	; 0x8001cd <us_per_count+0x1>
     ac2:	80 93 cc 01 	sts	0x01CC, r24	; 0x8001cc <us_per_count>

    //activate global interrupt
    sei();
     ac6:	78 94       	sei
     ac8:	08 95       	ret

00000aca <i2c_start>:
     aca:	94 ea       	ldi	r25, 0xA4	; 164
     acc:	90 93 bc 00 	sts	0x00BC, r25	; 0x8000bc <__TEXT_REGION_LENGTH__+0x7f80bc>
     ad0:	20 e4       	ldi	r18, 0x40	; 64
     ad2:	31 e0       	ldi	r19, 0x01	; 1
     ad4:	09 c0       	rjmp	.+18     	; 0xae8 <i2c_start+0x1e>
     ad6:	21 50       	subi	r18, 0x01	; 1
     ad8:	31 09       	sbc	r19, r1
     ada:	31 f4       	brne	.+12     	; 0xae8 <i2c_start+0x1e>
     adc:	80 91 d2 01 	lds	r24, 0x01D2	; 0x8001d2 <I2C_ErrorCode>
     ae0:	81 60       	ori	r24, 0x01	; 1
     ae2:	80 93 d2 01 	sts	0x01D2, r24	; 0x8001d2 <I2C_ErrorCode>
     ae6:	08 95       	ret
     ae8:	90 91 bc 00 	lds	r25, 0x00BC	; 0x8000bc <__TEXT_REGION_LENGTH__+0x7f80bc>
     aec:	99 23       	and	r25, r25
     aee:	1c f0       	brlt	.+6      	; 0xaf6 <i2c_start+0x2c>
     af0:	21 15       	cp	r18, r1
     af2:	31 05       	cpc	r19, r1
     af4:	81 f7       	brne	.-32     	; 0xad6 <i2c_start+0xc>
     af6:	80 93 bb 00 	sts	0x00BB, r24	; 0x8000bb <__TEXT_REGION_LENGTH__+0x7f80bb>
     afa:	84 e8       	ldi	r24, 0x84	; 132
     afc:	80 93 bc 00 	sts	0x00BC, r24	; 0x8000bc <__TEXT_REGION_LENGTH__+0x7f80bc>
     b00:	80 e4       	ldi	r24, 0x40	; 64
     b02:	91 e0       	ldi	r25, 0x01	; 1
     b04:	08 c0       	rjmp	.+16     	; 0xb16 <i2c_start+0x4c>
     b06:	01 97       	sbiw	r24, 0x01	; 1
     b08:	31 f4       	brne	.+12     	; 0xb16 <i2c_start+0x4c>
     b0a:	80 91 d2 01 	lds	r24, 0x01D2	; 0x8001d2 <I2C_ErrorCode>
     b0e:	82 60       	ori	r24, 0x02	; 2
     b10:	80 93 d2 01 	sts	0x01D2, r24	; 0x8001d2 <I2C_ErrorCode>
     b14:	08 95       	ret
     b16:	20 91 bc 00 	lds	r18, 0x00BC	; 0x8000bc <__TEXT_REGION_LENGTH__+0x7f80bc>
     b1a:	22 23       	and	r18, r18
     b1c:	14 f0       	brlt	.+4      	; 0xb22 <i2c_start+0x58>
     b1e:	00 97       	sbiw	r24, 0x00	; 0
     b20:	91 f7       	brne	.-28     	; 0xb06 <i2c_start+0x3c>
     b22:	08 95       	ret

00000b24 <i2c_stop>:
     b24:	84 e9       	ldi	r24, 0x94	; 148
     b26:	80 93 bc 00 	sts	0x00BC, r24	; 0x8000bc <__TEXT_REGION_LENGTH__+0x7f80bc>
     b2a:	08 95       	ret

00000b2c <i2c_byte>:
     b2c:	80 93 bb 00 	sts	0x00BB, r24	; 0x8000bb <__TEXT_REGION_LENGTH__+0x7f80bb>
     b30:	84 e8       	ldi	r24, 0x84	; 132
     b32:	80 93 bc 00 	sts	0x00BC, r24	; 0x8000bc <__TEXT_REGION_LENGTH__+0x7f80bc>
     b36:	80 e4       	ldi	r24, 0x40	; 64
     b38:	91 e0       	ldi	r25, 0x01	; 1
     b3a:	08 c0       	rjmp	.+16     	; 0xb4c <i2c_byte+0x20>
     b3c:	01 97       	sbiw	r24, 0x01	; 1
     b3e:	31 f4       	brne	.+12     	; 0xb4c <i2c_byte+0x20>
     b40:	80 91 d2 01 	lds	r24, 0x01D2	; 0x8001d2 <I2C_ErrorCode>
     b44:	84 60       	ori	r24, 0x04	; 4
     b46:	80 93 d2 01 	sts	0x01D2, r24	; 0x8001d2 <I2C_ErrorCode>
     b4a:	08 95       	ret
     b4c:	20 91 bc 00 	lds	r18, 0x00BC	; 0x8000bc <__TEXT_REGION_LENGTH__+0x7f80bc>
     b50:	22 23       	and	r18, r18
     b52:	14 f0       	brlt	.+4      	; 0xb58 <i2c_byte+0x2c>
     b54:	00 97       	sbiw	r24, 0x00	; 0
     b56:	91 f7       	brne	.-28     	; 0xb3c <i2c_byte+0x10>
     b58:	08 95       	ret

00000b5a <i2c_readAck>:
     b5a:	84 ec       	ldi	r24, 0xC4	; 196
     b5c:	80 93 bc 00 	sts	0x00BC, r24	; 0x8000bc <__TEXT_REGION_LENGTH__+0x7f80bc>
     b60:	80 e4       	ldi	r24, 0x40	; 64
     b62:	91 e0       	ldi	r25, 0x01	; 1
     b64:	09 c0       	rjmp	.+18     	; 0xb78 <i2c_readAck+0x1e>
     b66:	01 97       	sbiw	r24, 0x01	; 1
     b68:	39 f4       	brne	.+14     	; 0xb78 <i2c_readAck+0x1e>
     b6a:	80 91 d2 01 	lds	r24, 0x01D2	; 0x8001d2 <I2C_ErrorCode>
     b6e:	88 60       	ori	r24, 0x08	; 8
     b70:	80 93 d2 01 	sts	0x01D2, r24	; 0x8001d2 <I2C_ErrorCode>
     b74:	80 e0       	ldi	r24, 0x00	; 0
     b76:	08 95       	ret
     b78:	20 91 bc 00 	lds	r18, 0x00BC	; 0x8000bc <__TEXT_REGION_LENGTH__+0x7f80bc>
     b7c:	22 23       	and	r18, r18
     b7e:	14 f0       	brlt	.+4      	; 0xb84 <i2c_readAck+0x2a>
     b80:	00 97       	sbiw	r24, 0x00	; 0
     b82:	89 f7       	brne	.-30     	; 0xb66 <i2c_readAck+0xc>
     b84:	80 91 bb 00 	lds	r24, 0x00BB	; 0x8000bb <__TEXT_REGION_LENGTH__+0x7f80bb>
     b88:	08 95       	ret

00000b8a <i2c_readNAck>:
     b8a:	84 e8       	ldi	r24, 0x84	; 132
     b8c:	80 93 bc 00 	sts	0x00BC, r24	; 0x8000bc <__TEXT_REGION_LENGTH__+0x7f80bc>
     b90:	80 e4       	ldi	r24, 0x40	; 64
     b92:	91 e0       	ldi	r25, 0x01	; 1
     b94:	09 c0       	rjmp	.+18     	; 0xba8 <i2c_readNAck+0x1e>
     b96:	01 97       	sbiw	r24, 0x01	; 1
     b98:	39 f4       	brne	.+14     	; 0xba8 <i2c_readNAck+0x1e>
     b9a:	80 91 d2 01 	lds	r24, 0x01D2	; 0x8001d2 <I2C_ErrorCode>
     b9e:	80 61       	ori	r24, 0x10	; 16
     ba0:	80 93 d2 01 	sts	0x01D2, r24	; 0x8001d2 <I2C_ErrorCode>
     ba4:	80 e0       	ldi	r24, 0x00	; 0
     ba6:	08 95       	ret
     ba8:	20 91 bc 00 	lds	r18, 0x00BC	; 0x8000bc <__TEXT_REGION_LENGTH__+0x7f80bc>
     bac:	22 23       	and	r18, r18
     bae:	14 f0       	brlt	.+4      	; 0xbb4 <i2c_readNAck+0x2a>
     bb0:	00 97       	sbiw	r24, 0x00	; 0
     bb2:	89 f7       	brne	.-30     	; 0xb96 <i2c_readNAck+0xc>
     bb4:	80 91 bb 00 	lds	r24, 0x00BB	; 0x8000bb <__TEXT_REGION_LENGTH__+0x7f80bb>
     bb8:	08 95       	ret

00000bba <toggle_e>:
     bba:	85 b1       	in	r24, 0x05	; 5
     bbc:	80 68       	ori	r24, 0x80	; 128
     bbe:	85 b9       	out	0x05, r24	; 5
     bc0:	85 e0       	ldi	r24, 0x05	; 5
     bc2:	8a 95       	dec	r24
     bc4:	f1 f7       	brne	.-4      	; 0xbc2 <toggle_e+0x8>
     bc6:	00 00       	nop
     bc8:	85 b1       	in	r24, 0x05	; 5
     bca:	8f 77       	andi	r24, 0x7F	; 127
     bcc:	85 b9       	out	0x05, r24	; 5
     bce:	08 95       	ret

00000bd0 <lcd_write>:
     bd0:	cf 93       	push	r28
     bd2:	c8 2f       	mov	r28, r24
     bd4:	66 23       	and	r22, r22
     bd6:	21 f0       	breq	.+8      	; 0xbe0 <lcd_write+0x10>
     bd8:	85 b1       	in	r24, 0x05	; 5
     bda:	81 60       	ori	r24, 0x01	; 1
     bdc:	85 b9       	out	0x05, r24	; 5
     bde:	03 c0       	rjmp	.+6      	; 0xbe6 <lcd_write+0x16>
     be0:	85 b1       	in	r24, 0x05	; 5
     be2:	8e 7f       	andi	r24, 0xFE	; 254
     be4:	85 b9       	out	0x05, r24	; 5
     be6:	8a b1       	in	r24, 0x0a	; 10
     be8:	80 61       	ori	r24, 0x10	; 16
     bea:	8a b9       	out	0x0a, r24	; 10
     bec:	8a b1       	in	r24, 0x0a	; 10
     bee:	80 62       	ori	r24, 0x20	; 32
     bf0:	8a b9       	out	0x0a, r24	; 10
     bf2:	8a b1       	in	r24, 0x0a	; 10
     bf4:	80 64       	ori	r24, 0x40	; 64
     bf6:	8a b9       	out	0x0a, r24	; 10
     bf8:	8a b1       	in	r24, 0x0a	; 10
     bfa:	80 68       	ori	r24, 0x80	; 128
     bfc:	8a b9       	out	0x0a, r24	; 10
     bfe:	8b b1       	in	r24, 0x0b	; 11
     c00:	8f 77       	andi	r24, 0x7F	; 127
     c02:	8b b9       	out	0x0b, r24	; 11
     c04:	8b b1       	in	r24, 0x0b	; 11
     c06:	8f 7b       	andi	r24, 0xBF	; 191
     c08:	8b b9       	out	0x0b, r24	; 11
     c0a:	8b b1       	in	r24, 0x0b	; 11
     c0c:	8f 7d       	andi	r24, 0xDF	; 223
     c0e:	8b b9       	out	0x0b, r24	; 11
     c10:	8b b1       	in	r24, 0x0b	; 11
     c12:	8f 7e       	andi	r24, 0xEF	; 239
     c14:	8b b9       	out	0x0b, r24	; 11
     c16:	cc 23       	and	r28, r28
     c18:	1c f4       	brge	.+6      	; 0xc20 <lcd_write+0x50>
     c1a:	8b b1       	in	r24, 0x0b	; 11
     c1c:	80 68       	ori	r24, 0x80	; 128
     c1e:	8b b9       	out	0x0b, r24	; 11
     c20:	c6 ff       	sbrs	r28, 6
     c22:	03 c0       	rjmp	.+6      	; 0xc2a <lcd_write+0x5a>
     c24:	8b b1       	in	r24, 0x0b	; 11
     c26:	80 64       	ori	r24, 0x40	; 64
     c28:	8b b9       	out	0x0b, r24	; 11
     c2a:	c5 ff       	sbrs	r28, 5
     c2c:	03 c0       	rjmp	.+6      	; 0xc34 <lcd_write+0x64>
     c2e:	8b b1       	in	r24, 0x0b	; 11
     c30:	80 62       	ori	r24, 0x20	; 32
     c32:	8b b9       	out	0x0b, r24	; 11
     c34:	c4 ff       	sbrs	r28, 4
     c36:	03 c0       	rjmp	.+6      	; 0xc3e <lcd_write+0x6e>
     c38:	8b b1       	in	r24, 0x0b	; 11
     c3a:	80 61       	ori	r24, 0x10	; 16
     c3c:	8b b9       	out	0x0b, r24	; 11
     c3e:	0e 94 dd 05 	call	0xbba	; 0xbba <toggle_e>
     c42:	8b b1       	in	r24, 0x0b	; 11
     c44:	8f 77       	andi	r24, 0x7F	; 127
     c46:	8b b9       	out	0x0b, r24	; 11
     c48:	8b b1       	in	r24, 0x0b	; 11
     c4a:	8f 7b       	andi	r24, 0xBF	; 191
     c4c:	8b b9       	out	0x0b, r24	; 11
     c4e:	8b b1       	in	r24, 0x0b	; 11
     c50:	8f 7d       	andi	r24, 0xDF	; 223
     c52:	8b b9       	out	0x0b, r24	; 11
     c54:	8b b1       	in	r24, 0x0b	; 11
     c56:	8f 7e       	andi	r24, 0xEF	; 239
     c58:	8b b9       	out	0x0b, r24	; 11
     c5a:	c3 ff       	sbrs	r28, 3
     c5c:	03 c0       	rjmp	.+6      	; 0xc64 <lcd_write+0x94>
     c5e:	8b b1       	in	r24, 0x0b	; 11
     c60:	80 68       	ori	r24, 0x80	; 128
     c62:	8b b9       	out	0x0b, r24	; 11
     c64:	c2 ff       	sbrs	r28, 2
     c66:	03 c0       	rjmp	.+6      	; 0xc6e <lcd_write+0x9e>
     c68:	8b b1       	in	r24, 0x0b	; 11
     c6a:	80 64       	ori	r24, 0x40	; 64
     c6c:	8b b9       	out	0x0b, r24	; 11
     c6e:	c1 ff       	sbrs	r28, 1
     c70:	03 c0       	rjmp	.+6      	; 0xc78 <lcd_write+0xa8>
     c72:	8b b1       	in	r24, 0x0b	; 11
     c74:	80 62       	ori	r24, 0x20	; 32
     c76:	8b b9       	out	0x0b, r24	; 11
     c78:	c0 ff       	sbrs	r28, 0
     c7a:	03 c0       	rjmp	.+6      	; 0xc82 <lcd_write+0xb2>
     c7c:	8b b1       	in	r24, 0x0b	; 11
     c7e:	80 61       	ori	r24, 0x10	; 16
     c80:	8b b9       	out	0x0b, r24	; 11
     c82:	0e 94 dd 05 	call	0xbba	; 0xbba <toggle_e>
     c86:	8b b1       	in	r24, 0x0b	; 11
     c88:	80 61       	ori	r24, 0x10	; 16
     c8a:	8b b9       	out	0x0b, r24	; 11
     c8c:	8b b1       	in	r24, 0x0b	; 11
     c8e:	80 62       	ori	r24, 0x20	; 32
     c90:	8b b9       	out	0x0b, r24	; 11
     c92:	8b b1       	in	r24, 0x0b	; 11
     c94:	80 64       	ori	r24, 0x40	; 64
     c96:	8b b9       	out	0x0b, r24	; 11
     c98:	8b b1       	in	r24, 0x0b	; 11
     c9a:	80 68       	ori	r24, 0x80	; 128
     c9c:	8b b9       	out	0x0b, r24	; 11
     c9e:	87 eb       	ldi	r24, 0xB7	; 183
     ca0:	9b e0       	ldi	r25, 0x0B	; 11
     ca2:	01 97       	sbiw	r24, 0x01	; 1
     ca4:	f1 f7       	brne	.-4      	; 0xca2 <lcd_write+0xd2>
     ca6:	00 c0       	rjmp	.+0      	; 0xca8 <lcd_write+0xd8>
     ca8:	00 00       	nop
     caa:	cf 91       	pop	r28
     cac:	08 95       	ret

00000cae <lcd_command>:
     cae:	60 e0       	ldi	r22, 0x00	; 0
     cb0:	0e 94 e8 05 	call	0xbd0	; 0xbd0 <lcd_write>
     cb4:	08 95       	ret

00000cb6 <lcd_gotoxy>:
     cb6:	61 11       	cpse	r22, r1
     cb8:	04 c0       	rjmp	.+8      	; 0xcc2 <lcd_gotoxy+0xc>
     cba:	80 58       	subi	r24, 0x80	; 128
     cbc:	0e 94 57 06 	call	0xcae	; 0xcae <lcd_command>
     cc0:	08 95       	ret
     cc2:	80 54       	subi	r24, 0x40	; 64
     cc4:	0e 94 57 06 	call	0xcae	; 0xcae <lcd_command>
     cc8:	08 95       	ret

00000cca <lcd_clrscr>:
     cca:	81 e0       	ldi	r24, 0x01	; 1
     ccc:	0e 94 57 06 	call	0xcae	; 0xcae <lcd_command>
     cd0:	08 95       	ret

00000cd2 <lcd_putc>:
     cd2:	61 e0       	ldi	r22, 0x01	; 1
     cd4:	0e 94 e8 05 	call	0xbd0	; 0xbd0 <lcd_write>
     cd8:	08 95       	ret

00000cda <lcd_puts>:
     cda:	cf 93       	push	r28
     cdc:	df 93       	push	r29
     cde:	fc 01       	movw	r30, r24
     ce0:	03 c0       	rjmp	.+6      	; 0xce8 <lcd_puts+0xe>
     ce2:	0e 94 69 06 	call	0xcd2	; 0xcd2 <lcd_putc>
     ce6:	fe 01       	movw	r30, r28
     ce8:	ef 01       	movw	r28, r30
     cea:	21 96       	adiw	r28, 0x01	; 1
     cec:	80 81       	ld	r24, Z
     cee:	81 11       	cpse	r24, r1
     cf0:	f8 cf       	rjmp	.-16     	; 0xce2 <lcd_puts+0x8>
     cf2:	df 91       	pop	r29
     cf4:	cf 91       	pop	r28
     cf6:	08 95       	ret

00000cf8 <lcd_init>:
     cf8:	cf 93       	push	r28
     cfa:	c8 2f       	mov	r28, r24
     cfc:	84 b1       	in	r24, 0x04	; 4
     cfe:	81 60       	ori	r24, 0x01	; 1
     d00:	84 b9       	out	0x04, r24	; 4
     d02:	8a b1       	in	r24, 0x0a	; 10
     d04:	80 62       	ori	r24, 0x20	; 32
     d06:	8a b9       	out	0x0a, r24	; 10
     d08:	84 b1       	in	r24, 0x04	; 4
     d0a:	80 68       	ori	r24, 0x80	; 128
     d0c:	84 b9       	out	0x04, r24	; 4
     d0e:	8a b1       	in	r24, 0x0a	; 10
     d10:	80 61       	ori	r24, 0x10	; 16
     d12:	8a b9       	out	0x0a, r24	; 10
     d14:	8a b1       	in	r24, 0x0a	; 10
     d16:	80 62       	ori	r24, 0x20	; 32
     d18:	8a b9       	out	0x0a, r24	; 10
     d1a:	8a b1       	in	r24, 0x0a	; 10
     d1c:	80 64       	ori	r24, 0x40	; 64
     d1e:	8a b9       	out	0x0a, r24	; 10
     d20:	8a b1       	in	r24, 0x0a	; 10
     d22:	80 68       	ori	r24, 0x80	; 128
     d24:	8a b9       	out	0x0a, r24	; 10
     d26:	8f ef       	ldi	r24, 0xFF	; 255
     d28:	99 ef       	ldi	r25, 0xF9	; 249
     d2a:	01 97       	sbiw	r24, 0x01	; 1
     d2c:	f1 f7       	brne	.-4      	; 0xd2a <lcd_init+0x32>
     d2e:	00 c0       	rjmp	.+0      	; 0xd30 <lcd_init+0x38>
     d30:	00 00       	nop
     d32:	8b b1       	in	r24, 0x0b	; 11
     d34:	80 62       	ori	r24, 0x20	; 32
     d36:	8b b9       	out	0x0b, r24	; 11
     d38:	8b b1       	in	r24, 0x0b	; 11
     d3a:	80 61       	ori	r24, 0x10	; 16
     d3c:	8b b9       	out	0x0b, r24	; 11
     d3e:	0e 94 dd 05 	call	0xbba	; 0xbba <toggle_e>
     d42:	8f e1       	ldi	r24, 0x1F	; 31
     d44:	9e e4       	ldi	r25, 0x4E	; 78
     d46:	01 97       	sbiw	r24, 0x01	; 1
     d48:	f1 f7       	brne	.-4      	; 0xd46 <lcd_init+0x4e>
     d4a:	00 c0       	rjmp	.+0      	; 0xd4c <lcd_init+0x54>
     d4c:	00 00       	nop
     d4e:	0e 94 dd 05 	call	0xbba	; 0xbba <toggle_e>
     d52:	8f ef       	ldi	r24, 0xFF	; 255
     d54:	90 e0       	ldi	r25, 0x00	; 0
     d56:	01 97       	sbiw	r24, 0x01	; 1
     d58:	f1 f7       	brne	.-4      	; 0xd56 <lcd_init+0x5e>
     d5a:	00 c0       	rjmp	.+0      	; 0xd5c <lcd_init+0x64>
     d5c:	00 00       	nop
     d5e:	0e 94 dd 05 	call	0xbba	; 0xbba <toggle_e>
     d62:	8f ef       	ldi	r24, 0xFF	; 255
     d64:	90 e0       	ldi	r25, 0x00	; 0
     d66:	01 97       	sbiw	r24, 0x01	; 1
     d68:	f1 f7       	brne	.-4      	; 0xd66 <lcd_init+0x6e>
     d6a:	00 c0       	rjmp	.+0      	; 0xd6c <lcd_init+0x74>
     d6c:	00 00       	nop
     d6e:	8b b1       	in	r24, 0x0b	; 11
     d70:	8f 7e       	andi	r24, 0xEF	; 239
     d72:	8b b9       	out	0x0b, r24	; 11
     d74:	0e 94 dd 05 	call	0xbba	; 0xbba <toggle_e>
     d78:	8f ef       	ldi	r24, 0xFF	; 255
     d7a:	90 e0       	ldi	r25, 0x00	; 0
     d7c:	01 97       	sbiw	r24, 0x01	; 1
     d7e:	f1 f7       	brne	.-4      	; 0xd7c <lcd_init+0x84>
     d80:	00 c0       	rjmp	.+0      	; 0xd82 <lcd_init+0x8a>
     d82:	00 00       	nop
     d84:	88 e2       	ldi	r24, 0x28	; 40
     d86:	0e 94 57 06 	call	0xcae	; 0xcae <lcd_command>
     d8a:	88 e0       	ldi	r24, 0x08	; 8
     d8c:	0e 94 57 06 	call	0xcae	; 0xcae <lcd_command>
     d90:	0e 94 65 06 	call	0xcca	; 0xcca <lcd_clrscr>
     d94:	86 e0       	ldi	r24, 0x06	; 6
     d96:	0e 94 57 06 	call	0xcae	; 0xcae <lcd_command>
     d9a:	8c 2f       	mov	r24, r28
     d9c:	0e 94 57 06 	call	0xcae	; 0xcae <lcd_command>
     da0:	cf 91       	pop	r28
     da2:	08 95       	ret

00000da4 <PumpToggle>:
 * Purpose:  Update the values of distance and pressure.
 * Returns:  none
 **********************************************************************/

void PumpToggle(){
	data[2]=!data[2];
     da4:	20 91 05 01 	lds	r18, 0x0105	; 0x800105 <data+0x4>
     da8:	30 91 06 01 	lds	r19, 0x0106	; 0x800106 <data+0x5>
     dac:	81 e0       	ldi	r24, 0x01	; 1
     dae:	90 e0       	ldi	r25, 0x00	; 0
     db0:	23 2b       	or	r18, r19
     db2:	11 f0       	breq	.+4      	; 0xdb8 <PumpToggle+0x14>
     db4:	80 e0       	ldi	r24, 0x00	; 0
     db6:	90 e0       	ldi	r25, 0x00	; 0
     db8:	90 93 06 01 	sts	0x0106, r25	; 0x800106 <data+0x5>
     dbc:	80 93 05 01 	sts	0x0105, r24	; 0x800105 <data+0x4>
	if(data[2]==1){
     dc0:	01 97       	sbiw	r24, 0x01	; 1
     dc2:	31 f4       	brne	.+12     	; 0xdd0 <PumpToggle+0x2c>
		GPIO_write_high(&PORTD,1);
     dc4:	61 e0       	ldi	r22, 0x01	; 1
     dc6:	8b e2       	ldi	r24, 0x2B	; 43
     dc8:	90 e0       	ldi	r25, 0x00	; 0
     dca:	0e 94 9d 04 	call	0x93a	; 0x93a <GPIO_write_high>
     dce:	08 95       	ret
	}
	else{
		GPIO_write_low(&PORTD,1);
     dd0:	61 e0       	ldi	r22, 0x01	; 1
     dd2:	8b e2       	ldi	r24, 0x2B	; 43
     dd4:	90 e0       	ldi	r25, 0x00	; 0
     dd6:	0e 94 90 04 	call	0x920	; 0x920 <GPIO_write_low>
     dda:	08 95       	ret

00000ddc <ValveSet>:
	}
}

void ValveSet(uint8_t openper){ //Set the opening range of valve % form
     ddc:	cf 93       	push	r28
     dde:	c8 2f       	mov	r28, r24
	setupServoTimer(PORTB, SERVO_PIN);
     de0:	85 b1       	in	r24, 0x05	; 5
     de2:	62 e0       	ldi	r22, 0x02	; 2
     de4:	90 e0       	ldi	r25, 0x00	; 0
     de6:	0e 94 db 08 	call	0x11b6	; 0x11b6 <setupServoTimer>
	moveServoTimer(openper);
     dea:	8c 2f       	mov	r24, r28
     dec:	0e 94 ff 08 	call	0x11fe	; 0x11fe <moveServoTimer>
}
     df0:	cf 91       	pop	r28
     df2:	08 95       	ret

00000df4 <ReadKeys>:
 * Function: Read biutton state
 * Purpose:  Proccess the press of the button, by changing the data when is posible.
 * Returns:  The setting value the user wants to see.
 **********************************************************************/

uint8_t ReadKeys( uint8_t setting, int value){
     df4:	0f 93       	push	r16
     df6:	1f 93       	push	r17
     df8:	cf 93       	push	r28
     dfa:	df 93       	push	r29
     dfc:	c8 2f       	mov	r28, r24
     dfe:	8b 01       	movw	r16, r22
	 
	uint8_t newset = setting;	

	if(value>80 && value<120){ //Up
     e00:	cb 01       	movw	r24, r22
     e02:	81 55       	subi	r24, 0x51	; 81
     e04:	91 09       	sbc	r25, r1
     e06:	87 97       	sbiw	r24, 0x27	; 39
     e08:	70 f4       	brcc	.+28     	; 0xe26 <ReadKeys+0x32>
		if(newset<1||newset>50){
     e0a:	df ef       	ldi	r29, 0xFF	; 255
     e0c:	dc 0f       	add	r29, r28
     e0e:	d2 33       	cpi	r29, 0x32	; 50
     e10:	08 f0       	brcs	.+2      	; 0xe14 <ReadKeys+0x20>
			newset= 3;
     e12:	d3 e0       	ldi	r29, 0x03	; 3
		}
		else{
			newset = newset -1;		//UP is pressed 120. Change the display setting.
		}
		lcd_gotoxy(0,0);
     e14:	60 e0       	ldi	r22, 0x00	; 0
     e16:	80 e0       	ldi	r24, 0x00	; 0
     e18:	0e 94 5b 06 	call	0xcb6	; 0xcb6 <lcd_gotoxy>
		lcd_puts("                                                                                                       "); //Resets screen
     e1c:	8a e0       	ldi	r24, 0x0A	; 10
     e1e:	91 e0       	ldi	r25, 0x01	; 1
     e20:	0e 94 6d 06 	call	0xcda	; 0xcda <lcd_puts>
     e24:	01 c0       	rjmp	.+2      	; 0xe28 <ReadKeys+0x34>
 * Returns:  The setting value the user wants to see.
 **********************************************************************/

uint8_t ReadKeys( uint8_t setting, int value){
	 
	uint8_t newset = setting;	
     e26:	dc 2f       	mov	r29, r28
		}
		lcd_gotoxy(0,0);
		lcd_puts("                                                                                                       "); //Resets screen
	}
	
	if(value>200 && value< 300){ //DOWN
     e28:	c8 01       	movw	r24, r16
     e2a:	89 5c       	subi	r24, 0xC9	; 201
     e2c:	91 09       	sbc	r25, r1
     e2e:	83 36       	cpi	r24, 0x63	; 99
     e30:	91 05       	cpc	r25, r1
     e32:	70 f4       	brcc	.+28     	; 0xe50 <ReadKeys+0x5c>
		if(newset>2){
     e34:	d3 30       	cpi	r29, 0x03	; 3
     e36:	18 f4       	brcc	.+6      	; 0xe3e <ReadKeys+0x4a>
			newset = 0;
		}
		else{
			newset= setting + 1;
     e38:	d1 e0       	ldi	r29, 0x01	; 1
     e3a:	dc 0f       	add	r29, r28
     e3c:	01 c0       	rjmp	.+2      	; 0xe40 <ReadKeys+0x4c>
		lcd_puts("                                                                                                       "); //Resets screen
	}
	
	if(value>200 && value< 300){ //DOWN
		if(newset>2){
			newset = 0;
     e3e:	d0 e0       	ldi	r29, 0x00	; 0
		}
		else{
			newset= setting + 1;
		}
		lcd_gotoxy(0,0);
     e40:	60 e0       	ldi	r22, 0x00	; 0
     e42:	80 e0       	ldi	r24, 0x00	; 0
     e44:	0e 94 5b 06 	call	0xcb6	; 0xcb6 <lcd_gotoxy>
		lcd_puts("                                                                                                       "); //Resets screen
     e48:	8a e0       	ldi	r24, 0x0A	; 10
     e4a:	91 e0       	ldi	r25, 0x01	; 1
     e4c:	0e 94 6d 06 	call	0xcda	; 0xcda <lcd_puts>
	}
	
	if(value>390 && value<430){ //LEFT //When left button is pressed 410.
     e50:	c8 01       	movw	r24, r16
     e52:	87 58       	subi	r24, 0x87	; 135
     e54:	91 40       	sbci	r25, 0x01	; 1
     e56:	87 97       	sbiw	r24, 0x27	; 39
     e58:	d8 f4       	brcc	.+54     	; 0xe90 <ReadKeys+0x9c>
		if (setting==1 && data[setting] != 0 ){
     e5a:	c1 30       	cpi	r28, 0x01	; 1
     e5c:	a9 f4       	brne	.+42     	; 0xe88 <ReadKeys+0x94>
     e5e:	8c 2f       	mov	r24, r28
     e60:	90 e0       	ldi	r25, 0x00	; 0
     e62:	fc 01       	movw	r30, r24
     e64:	ee 0f       	add	r30, r30
     e66:	ff 1f       	adc	r31, r31
     e68:	ef 5f       	subi	r30, 0xFF	; 255
     e6a:	fe 4f       	sbci	r31, 0xFE	; 254
     e6c:	20 81       	ld	r18, Z
     e6e:	31 81       	ldd	r19, Z+1	; 0x01
     e70:	21 15       	cp	r18, r1
     e72:	31 05       	cpc	r19, r1
     e74:	49 f0       	breq	.+18     	; 0xe88 <ReadKeys+0x94>
			data[setting]=data[setting]-5;	//If it is possible to effit the number is bigger than 5 decrease the value in jumps of 5
     e76:	25 50       	subi	r18, 0x05	; 5
     e78:	31 09       	sbc	r19, r1
     e7a:	88 0f       	add	r24, r24
     e7c:	99 1f       	adc	r25, r25
     e7e:	fc 01       	movw	r30, r24
     e80:	ef 5f       	subi	r30, 0xFF	; 255
     e82:	fe 4f       	sbci	r31, 0xFE	; 254
     e84:	31 83       	std	Z+1, r19	; 0x01
     e86:	20 83       	st	Z, r18
		}
		if(setting==2){
     e88:	c2 30       	cpi	r28, 0x02	; 2
     e8a:	11 f4       	brne	.+4      	; 0xe90 <ReadKeys+0x9c>
			PumpToggle();
     e8c:	0e 94 d2 06 	call	0xda4	; 0xda4 <PumpToggle>
			
		}
	}
	
	if(value < 80){ //Right
     e90:	00 35       	cpi	r16, 0x50	; 80
     e92:	11 05       	cpc	r17, r1
     e94:	dc f4       	brge	.+54     	; 0xecc <ReadKeys+0xd8>
		if(data[setting] != 100 && setting==1){
     e96:	8c 2f       	mov	r24, r28
     e98:	90 e0       	ldi	r25, 0x00	; 0
     e9a:	fc 01       	movw	r30, r24
     e9c:	ee 0f       	add	r30, r30
     e9e:	ff 1f       	adc	r31, r31
     ea0:	ef 5f       	subi	r30, 0xFF	; 255
     ea2:	fe 4f       	sbci	r31, 0xFE	; 254
     ea4:	20 81       	ld	r18, Z
     ea6:	31 81       	ldd	r19, Z+1	; 0x01
     ea8:	24 36       	cpi	r18, 0x64	; 100
     eaa:	31 05       	cpc	r19, r1
     eac:	59 f0       	breq	.+22     	; 0xec4 <ReadKeys+0xd0>
     eae:	c1 30       	cpi	r28, 0x01	; 1
     eb0:	49 f4       	brne	.+18     	; 0xec4 <ReadKeys+0xd0>
			data[setting]=data[setting]+5;	//If it is possible to edit increase the value
     eb2:	2b 5f       	subi	r18, 0xFB	; 251
     eb4:	3f 4f       	sbci	r19, 0xFF	; 255
     eb6:	88 0f       	add	r24, r24
     eb8:	99 1f       	adc	r25, r25
     eba:	fc 01       	movw	r30, r24
     ebc:	ef 5f       	subi	r30, 0xFF	; 255
     ebe:	fe 4f       	sbci	r31, 0xFE	; 254
     ec0:	31 83       	std	Z+1, r19	; 0x01
     ec2:	20 83       	st	Z, r18
		}
		if(setting==2){
     ec4:	c2 30       	cpi	r28, 0x02	; 2
     ec6:	11 f4       	brne	.+4      	; 0xecc <ReadKeys+0xd8>
			PumpToggle();
     ec8:	0e 94 d2 06 	call	0xda4	; 0xda4 <PumpToggle>
		}
	}
	return newset;
	
}
     ecc:	8d 2f       	mov	r24, r29
     ece:	df 91       	pop	r29
     ed0:	cf 91       	pop	r28
     ed2:	1f 91       	pop	r17
     ed4:	0f 91       	pop	r16
     ed6:	08 95       	ret

00000ed8 <DistanceSensorValue>:
 * Returns:  none
 **********************************************************************/


int8_t DistanceSensorValue(uint8_t full){
	if (repeat>20){
     ed8:	80 91 a0 01 	lds	r24, 0x01A0	; 0x8001a0 <__data_end>
     edc:	85 31       	cpi	r24, 0x15	; 21
     ede:	30 f0       	brcs	.+12     	; 0xeec <DistanceSensorValue+0x14>
		repeat=0;
     ee0:	10 92 a0 01 	sts	0x01A0, r1	; 0x8001a0 <__data_end>
		
		//return round((full + get_dist())/100000000);
		lcd_init(LCD_DISP_ON);
     ee4:	8c e0       	ldi	r24, 0x0C	; 12
     ee6:	0e 94 7c 06 	call	0xcf8	; 0xcf8 <lcd_init>
     eea:	03 c0       	rjmp	.+6      	; 0xef2 <DistanceSensorValue+0x1a>
	}
	else{
		repeat++;
     eec:	8f 5f       	subi	r24, 0xFF	; 255
     eee:	80 93 a0 01 	sts	0x01A0, r24	; 0x8001a0 <__data_end>
	}
	return data[0];
}
     ef2:	80 91 01 01 	lds	r24, 0x0101	; 0x800101 <data>
     ef6:	08 95       	ret

00000ef8 <PressureGetValue>:
 * Function: Get the value of the Pressure
 * Purpose:  Read the pressure at the bottom of the tank. Taking into account the water level
 * Returns:  The pressure at the bottom of the tank
 **********************************************************************/

uint8_t PressureGetValue(){
     ef8:	cf 92       	push	r12
     efa:	df 92       	push	r13
     efc:	ef 92       	push	r14
     efe:	ff 92       	push	r15
     f00:	0f 93       	push	r16
     f02:	1f 93       	push	r17
     f04:	cf 93       	push	r28
     f06:	df 93       	push	r29
	if (repeat>20){
     f08:	80 91 a0 01 	lds	r24, 0x01A0	; 0x8001a0 <__data_end>
     f0c:	85 31       	cpi	r24, 0x15	; 21
     f0e:	e0 f1       	brcs	.+120    	; 0xf88 <PressureGetValue+0x90>
		data[0]=DistanceSensorValue(full);
     f10:	80 91 09 01 	lds	r24, 0x0109	; 0x800109 <full>
     f14:	0e 94 6c 07 	call	0xed8	; 0xed8 <DistanceSensorValue>
     f18:	01 e0       	ldi	r16, 0x01	; 1
     f1a:	11 e0       	ldi	r17, 0x01	; 1
     f1c:	08 2e       	mov	r0, r24
     f1e:	00 0c       	add	r0, r0
     f20:	99 0b       	sbc	r25, r25
     f22:	f8 01       	movw	r30, r16
     f24:	91 83       	std	Z+1, r25	; 0x01
     f26:	80 83       	st	Z, r24
		TIM1_stop();
     f28:	c1 e8       	ldi	r28, 0x81	; 129
     f2a:	d0 e0       	ldi	r29, 0x00	; 0
     f2c:	88 81       	ld	r24, Y
     f2e:	88 7f       	andi	r24, 0xF8	; 248
     f30:	88 83       	st	Y, r24
		bme280_init();
     f32:	0e 94 6b 04 	call	0x8d6	; 0x8d6 <bme280_init>
		float distance = bme280_readPressure(); //Presure in Pa
     f36:	0e 94 69 01 	call	0x2d2	; 0x2d2 <bme280_readPressure>
     f3a:	6b 01       	movw	r12, r22
     f3c:	7c 01       	movw	r14, r24
		TIM1_stop();
     f3e:	88 81       	ld	r24, Y
     f40:	88 7f       	andi	r24, 0xF8	; 248
     f42:	88 83       	st	Y, r24
		lcd_init(LCD_DISP_ON);
     f44:	8c e0       	ldi	r24, 0x0C	; 12
     f46:	0e 94 7c 06 	call	0xcf8	; 0xcf8 <lcd_init>
		repeat=0;
     f4a:	10 92 a0 01 	sts	0x01A0, r1	; 0x8001a0 <__data_end>
		return round((data[0]-distance)*9800/10000); //Formula to get the pressure at the bottom of the tank (supposing 10m) [KPa]
     f4e:	f8 01       	movw	r30, r16
     f50:	60 81       	ld	r22, Z
     f52:	71 81       	ldd	r23, Z+1	; 0x01
     f54:	80 e0       	ldi	r24, 0x00	; 0
     f56:	90 e0       	ldi	r25, 0x00	; 0
     f58:	0e 94 2f 0a 	call	0x145e	; 0x145e <__floatunsisf>
     f5c:	a7 01       	movw	r20, r14
     f5e:	96 01       	movw	r18, r12
     f60:	0e 94 1b 09 	call	0x1236	; 0x1236 <__subsf3>
     f64:	20 e0       	ldi	r18, 0x00	; 0
     f66:	30 e2       	ldi	r19, 0x20	; 32
     f68:	49 e1       	ldi	r20, 0x19	; 25
     f6a:	56 e4       	ldi	r21, 0x46	; 70
     f6c:	0e 94 0b 0b 	call	0x1616	; 0x1616 <__mulsf3>
     f70:	20 e0       	ldi	r18, 0x00	; 0
     f72:	30 e4       	ldi	r19, 0x40	; 64
     f74:	4c e1       	ldi	r20, 0x1C	; 28
     f76:	56 e4       	ldi	r21, 0x46	; 70
     f78:	0e 94 88 09 	call	0x1310	; 0x1310 <__divsf3>
     f7c:	0e 94 78 0b 	call	0x16f0	; 0x16f0 <round>
     f80:	0e 94 fa 09 	call	0x13f4	; 0x13f4 <__fixunssfsi>
     f84:	86 2f       	mov	r24, r22
     f86:	05 c0       	rjmp	.+10     	; 0xf92 <PressureGetValue+0x9a>
	}
	else{
		repeat++;
     f88:	8f 5f       	subi	r24, 0xFF	; 255
     f8a:	80 93 a0 01 	sts	0x01A0, r24	; 0x8001a0 <__data_end>
	}
	return data[3];
     f8e:	80 91 07 01 	lds	r24, 0x0107	; 0x800107 <data+0x6>
}
     f92:	df 91       	pop	r29
     f94:	cf 91       	pop	r28
     f96:	1f 91       	pop	r17
     f98:	0f 91       	pop	r16
     f9a:	ff 90       	pop	r15
     f9c:	ef 90       	pop	r14
     f9e:	df 90       	pop	r13
     fa0:	cf 90       	pop	r12
     fa2:	08 95       	ret

00000fa4 <Display>:
/**********************************************************************
 * Function: LCD Display
 * Purpose:  Shows the data the user wants.
 * Returns:  none
 **********************************************************************/
 void Display(uint8_t setting){
     fa4:	0f 93       	push	r16
     fa6:	1f 93       	push	r17
     fa8:	cf 93       	push	r28
     faa:	df 93       	push	r29
     fac:	00 d0       	rcall	.+0      	; 0xfae <Display+0xa>
     fae:	cd b7       	in	r28, 0x3d	; 61
     fb0:	de b7       	in	r29, 0x3e	; 62
     fb2:	08 2f       	mov	r16, r24
 
	 char lcd_string[2] = " ";
     fb4:	80 e2       	ldi	r24, 0x20	; 32
     fb6:	90 e0       	ldi	r25, 0x00	; 0
     fb8:	9a 83       	std	Y+2, r25	; 0x02
     fba:	89 83       	std	Y+1, r24	; 0x01
	 lcd_gotoxy(0,1);
     fbc:	61 e0       	ldi	r22, 0x01	; 1
     fbe:	80 e0       	ldi	r24, 0x00	; 0
     fc0:	0e 94 5b 06 	call	0xcb6	; 0xcb6 <lcd_gotoxy>
	 
	 switch (setting)					//Defines the display of each setting
     fc4:	01 30       	cpi	r16, 0x01	; 1
     fc6:	b1 f1       	breq	.+108    	; 0x1034 <Display+0x90>
     fc8:	38 f0       	brcs	.+14     	; 0xfd8 <Display+0x34>
     fca:	02 30       	cpi	r16, 0x02	; 2
     fcc:	09 f4       	brne	.+2      	; 0xfd0 <Display+0x2c>
     fce:	5d c0       	rjmp	.+186    	; 0x108a <Display+0xe6>
     fd0:	03 30       	cpi	r16, 0x03	; 3
     fd2:	09 f4       	brne	.+2      	; 0xfd6 <Display+0x32>
     fd4:	7f c0       	rjmp	.+254    	; 0x10d4 <Display+0x130>
     fd6:	a7 c0       	rjmp	.+334    	; 0x1126 <Display+0x182>
	 {
		 case 0:		//Depth
			 data[0] = DistanceSensorValue(full);		//Update the water level
     fd8:	80 91 09 01 	lds	r24, 0x0109	; 0x800109 <full>
     fdc:	0e 94 6c 07 	call	0xed8	; 0xed8 <DistanceSensorValue>
     fe0:	08 2e       	mov	r0, r24
     fe2:	00 0c       	add	r0, r0
     fe4:	99 0b       	sbc	r25, r25
     fe6:	90 93 02 01 	sts	0x0102, r25	; 0x800102 <data+0x1>
     fea:	80 93 01 01 	sts	0x0101, r24	; 0x800101 <data>
			 itoa(data[setting],lcd_string,10);
     fee:	e0 2f       	mov	r30, r16
     ff0:	f0 e0       	ldi	r31, 0x00	; 0
     ff2:	ee 0f       	add	r30, r30
     ff4:	ff 1f       	adc	r31, r31
     ff6:	ef 5f       	subi	r30, 0xFF	; 255
     ff8:	fe 4f       	sbci	r31, 0xFE	; 254
    } else if (__radix < 2 || __radix > 36) {
	*__s = 0;
	return __s;
    } else {
	extern char *__itoa_ncheck (int, char *, unsigned char);
	return __itoa_ncheck (__val, __s, __radix);
     ffa:	4a e0       	ldi	r20, 0x0A	; 10
     ffc:	be 01       	movw	r22, r28
     ffe:	6f 5f       	subi	r22, 0xFF	; 255
    1000:	7f 4f       	sbci	r23, 0xFF	; 255
    1002:	80 81       	ld	r24, Z
    1004:	91 81       	ldd	r25, Z+1	; 0x01
    1006:	0e 94 a4 0d 	call	0x1b48	; 0x1b48 <__itoa_ncheck>
			 lcd_puts(lcd_string);
    100a:	ce 01       	movw	r24, r28
    100c:	01 96       	adiw	r24, 0x01	; 1
    100e:	0e 94 6d 06 	call	0xcda	; 0xcda <lcd_puts>
			 lcd_gotoxy(0,0);
    1012:	60 e0       	ldi	r22, 0x00	; 0
    1014:	80 e0       	ldi	r24, 0x00	; 0
    1016:	0e 94 5b 06 	call	0xcb6	; 0xcb6 <lcd_gotoxy>
			 lcd_puts("Depth:");
    101a:	82 e7       	ldi	r24, 0x72	; 114
    101c:	91 e0       	ldi	r25, 0x01	; 1
    101e:	0e 94 6d 06 	call	0xcda	; 0xcda <lcd_puts>
			 lcd_gotoxy(5,1);
    1022:	61 e0       	ldi	r22, 0x01	; 1
    1024:	85 e0       	ldi	r24, 0x05	; 5
    1026:	0e 94 5b 06 	call	0xcb6	; 0xcb6 <lcd_gotoxy>
			 lcd_puts("cm");
    102a:	89 e7       	ldi	r24, 0x79	; 121
    102c:	91 e0       	ldi	r25, 0x01	; 1
    102e:	0e 94 6d 06 	call	0xcda	; 0xcda <lcd_puts>
			 break;
    1032:	79 c0       	rjmp	.+242    	; 0x1126 <Display+0x182>
		 case 1:		//Valve open ratio
			 itoa(data[setting],lcd_string,10);
    1034:	e0 2f       	mov	r30, r16
    1036:	f0 e0       	ldi	r31, 0x00	; 0
    1038:	ee 0f       	add	r30, r30
    103a:	ff 1f       	adc	r31, r31
    103c:	ef 5f       	subi	r30, 0xFF	; 255
    103e:	fe 4f       	sbci	r31, 0xFE	; 254
    1040:	4a e0       	ldi	r20, 0x0A	; 10
    1042:	be 01       	movw	r22, r28
    1044:	6f 5f       	subi	r22, 0xFF	; 255
    1046:	7f 4f       	sbci	r23, 0xFF	; 255
    1048:	80 81       	ld	r24, Z
    104a:	91 81       	ldd	r25, Z+1	; 0x01
    104c:	0e 94 a4 0d 	call	0x1b48	; 0x1b48 <__itoa_ncheck>
			 lcd_puts(lcd_string);
    1050:	ce 01       	movw	r24, r28
    1052:	01 96       	adiw	r24, 0x01	; 1
    1054:	0e 94 6d 06 	call	0xcda	; 0xcda <lcd_puts>
			 lcd_gotoxy(2,1);
    1058:	61 e0       	ldi	r22, 0x01	; 1
    105a:	82 e0       	ldi	r24, 0x02	; 2
    105c:	0e 94 5b 06 	call	0xcb6	; 0xcb6 <lcd_gotoxy>
			 lcd_puts(" ");
    1060:	80 e7       	ldi	r24, 0x70	; 112
    1062:	91 e0       	ldi	r25, 0x01	; 1
    1064:	0e 94 6d 06 	call	0xcda	; 0xcda <lcd_puts>
			 lcd_gotoxy(0,0);
    1068:	60 e0       	ldi	r22, 0x00	; 0
    106a:	80 e0       	ldi	r24, 0x00	; 0
    106c:	0e 94 5b 06 	call	0xcb6	; 0xcb6 <lcd_gotoxy>
			 lcd_puts("Valve:");
    1070:	8c e7       	ldi	r24, 0x7C	; 124
    1072:	91 e0       	ldi	r25, 0x01	; 1
    1074:	0e 94 6d 06 	call	0xcda	; 0xcda <lcd_puts>
			 lcd_gotoxy(5,1);
    1078:	61 e0       	ldi	r22, 0x01	; 1
    107a:	85 e0       	ldi	r24, 0x05	; 5
    107c:	0e 94 5b 06 	call	0xcb6	; 0xcb6 <lcd_gotoxy>
			 lcd_puts("%");
    1080:	83 e8       	ldi	r24, 0x83	; 131
    1082:	91 e0       	ldi	r25, 0x01	; 1
    1084:	0e 94 6d 06 	call	0xcda	; 0xcda <lcd_puts>
			 break;
    1088:	4e c0       	rjmp	.+156    	; 0x1126 <Display+0x182>
		 case 2:		//Pump state
			 itoa(data[setting],lcd_string,10);
    108a:	10 e0       	ldi	r17, 0x00	; 0
    108c:	00 0f       	add	r16, r16
    108e:	11 1f       	adc	r17, r17
    1090:	0f 5f       	subi	r16, 0xFF	; 255
    1092:	1e 4f       	sbci	r17, 0xFE	; 254
    1094:	4a e0       	ldi	r20, 0x0A	; 10
    1096:	be 01       	movw	r22, r28
    1098:	6f 5f       	subi	r22, 0xFF	; 255
    109a:	7f 4f       	sbci	r23, 0xFF	; 255
    109c:	f8 01       	movw	r30, r16
    109e:	80 81       	ld	r24, Z
    10a0:	91 81       	ldd	r25, Z+1	; 0x01
    10a2:	0e 94 a4 0d 	call	0x1b48	; 0x1b48 <__itoa_ncheck>
			 if(data[setting]==1){
    10a6:	f8 01       	movw	r30, r16
    10a8:	80 81       	ld	r24, Z
    10aa:	91 81       	ldd	r25, Z+1	; 0x01
    10ac:	01 97       	sbiw	r24, 0x01	; 1
    10ae:	29 f4       	brne	.+10     	; 0x10ba <Display+0x116>
				 lcd_puts("On ");
    10b0:	85 e8       	ldi	r24, 0x85	; 133
    10b2:	91 e0       	ldi	r25, 0x01	; 1
    10b4:	0e 94 6d 06 	call	0xcda	; 0xcda <lcd_puts>
    10b8:	04 c0       	rjmp	.+8      	; 0x10c2 <Display+0x11e>

			 }
			 else{
				 lcd_puts("Off");
    10ba:	89 e8       	ldi	r24, 0x89	; 137
    10bc:	91 e0       	ldi	r25, 0x01	; 1
    10be:	0e 94 6d 06 	call	0xcda	; 0xcda <lcd_puts>
			 }
			 lcd_gotoxy(0,0);
    10c2:	60 e0       	ldi	r22, 0x00	; 0
    10c4:	80 e0       	ldi	r24, 0x00	; 0
    10c6:	0e 94 5b 06 	call	0xcb6	; 0xcb6 <lcd_gotoxy>
			 lcd_puts("Pump:");
    10ca:	8d e8       	ldi	r24, 0x8D	; 141
    10cc:	91 e0       	ldi	r25, 0x01	; 1
    10ce:	0e 94 6d 06 	call	0xcda	; 0xcda <lcd_puts>
			 break;
    10d2:	29 c0       	rjmp	.+82     	; 0x1126 <Display+0x182>
		 case 3:		//Pressure
			 data[3] = PressureGetValue();		//Update the pressure at the bottom of the tank
    10d4:	0e 94 7c 07 	call	0xef8	; 0xef8 <PressureGetValue>
    10d8:	90 e0       	ldi	r25, 0x00	; 0
    10da:	90 93 08 01 	sts	0x0108, r25	; 0x800108 <data+0x7>
    10de:	80 93 07 01 	sts	0x0107, r24	; 0x800107 <data+0x6>
			 itoa(data[setting],lcd_string,10);
    10e2:	e0 2f       	mov	r30, r16
    10e4:	f0 e0       	ldi	r31, 0x00	; 0
    10e6:	ee 0f       	add	r30, r30
    10e8:	ff 1f       	adc	r31, r31
    10ea:	ef 5f       	subi	r30, 0xFF	; 255
    10ec:	fe 4f       	sbci	r31, 0xFE	; 254
    10ee:	4a e0       	ldi	r20, 0x0A	; 10
    10f0:	be 01       	movw	r22, r28
    10f2:	6f 5f       	subi	r22, 0xFF	; 255
    10f4:	7f 4f       	sbci	r23, 0xFF	; 255
    10f6:	80 81       	ld	r24, Z
    10f8:	91 81       	ldd	r25, Z+1	; 0x01
    10fa:	0e 94 a4 0d 	call	0x1b48	; 0x1b48 <__itoa_ncheck>
			 lcd_puts(lcd_string);
    10fe:	ce 01       	movw	r24, r28
    1100:	01 96       	adiw	r24, 0x01	; 1
    1102:	0e 94 6d 06 	call	0xcda	; 0xcda <lcd_puts>
			 lcd_gotoxy(0,0);
    1106:	60 e0       	ldi	r22, 0x00	; 0
    1108:	80 e0       	ldi	r24, 0x00	; 0
    110a:	0e 94 5b 06 	call	0xcb6	; 0xcb6 <lcd_gotoxy>
			 lcd_puts("Pressure:");
    110e:	83 e9       	ldi	r24, 0x93	; 147
    1110:	91 e0       	ldi	r25, 0x01	; 1
    1112:	0e 94 6d 06 	call	0xcda	; 0xcda <lcd_puts>
			 lcd_gotoxy(5,1);
    1116:	61 e0       	ldi	r22, 0x01	; 1
    1118:	85 e0       	ldi	r24, 0x05	; 5
    111a:	0e 94 5b 06 	call	0xcb6	; 0xcb6 <lcd_gotoxy>
			 lcd_puts("Pa");
    111e:	8d e9       	ldi	r24, 0x9D	; 157
    1120:	91 e0       	ldi	r25, 0x01	; 1
    1122:	0e 94 6d 06 	call	0xcda	; 0xcda <lcd_puts>
			 break;
	 } 
 }
    1126:	0f 90       	pop	r0
    1128:	0f 90       	pop	r0
    112a:	df 91       	pop	r29
    112c:	cf 91       	pop	r28
    112e:	1f 91       	pop	r17
    1130:	0f 91       	pop	r16
    1132:	08 95       	ret

00001134 <main>:
 * Function: Main function where the program execution begins
 * Purpose:  Update the values of distance and pressure.
 * Returns:  none
 **********************************************************************/
void main(void){
	init_ultrasonic_sensor();
    1134:	0e 94 41 05 	call	0xa82	; 0xa82 <init_ultrasonic_sensor>
	lcd_init(LCD_DISP_ON);
    1138:	8c e0       	ldi	r24, 0x0C	; 12
    113a:	0e 94 7c 06 	call	0xcf8	; 0xcf8 <lcd_init>
	GPIO_config_output(&DDRD, PUMP_PIN);
    113e:	61 e0       	ldi	r22, 0x01	; 1
    1140:	8a e2       	ldi	r24, 0x2A	; 42
    1142:	90 e0       	ldi	r25, 0x00	; 0
    1144:	0e 94 84 04 	call	0x908	; 0x908 <GPIO_config_output>
	// Configure ADC to convert PC0[A0] analog value
	
	// Set ADC reference to AVcc
	ADMUX |= (1<<REFS0);
    1148:	ec e7       	ldi	r30, 0x7C	; 124
    114a:	f0 e0       	ldi	r31, 0x00	; 0
    114c:	80 81       	ld	r24, Z
    114e:	80 64       	ori	r24, 0x40	; 64
    1150:	80 83       	st	Z, r24
	ADMUX &= ~(1<<REFS1);
    1152:	80 81       	ld	r24, Z
    1154:	8f 77       	andi	r24, 0x7F	; 127
    1156:	80 83       	st	Z, r24
	// Set input channel to ADC0
	ADMUX &= ~(1<<MUX3|1<<MUX2|1<<MUX1|1<<MUX0);
    1158:	80 81       	ld	r24, Z
    115a:	80 7f       	andi	r24, 0xF0	; 240
    115c:	80 83       	st	Z, r24
	// Enable ADC module
	ADCSRA |= (1<<ADEN);
    115e:	ea e7       	ldi	r30, 0x7A	; 122
    1160:	f0 e0       	ldi	r31, 0x00	; 0
    1162:	80 81       	ld	r24, Z
    1164:	80 68       	ori	r24, 0x80	; 128
    1166:	80 83       	st	Z, r24
	// Enable conversion complete interrupt
	ADCSRA |= (1<<ADIE);
    1168:	80 81       	ld	r24, Z
    116a:	88 60       	ori	r24, 0x08	; 8
    116c:	80 83       	st	Z, r24
	// Set clock prescaler to 128
	ADCSRA |= (1<<ADPS0 | 1<<ADPS1| 1<<ADPS2);
    116e:	80 81       	ld	r24, Z
    1170:	87 60       	ori	r24, 0x07	; 7
    1172:	80 83       	st	Z, r24
	// Configure 16-bit Timer/Counter1 to start ADC conversion

	
	while(1){
		ADCSRA |= (1<<ADSC);
    1174:	ea e7       	ldi	r30, 0x7A	; 122
    1176:	f0 e0       	ldi	r31, 0x00	; 0
    1178:	80 81       	ld	r24, Z
    117a:	80 64       	ori	r24, 0x40	; 64
    117c:	80 83       	st	Z, r24
		setting=ReadKeys(setting, ADC);
    117e:	60 91 78 00 	lds	r22, 0x0078	; 0x800078 <__TEXT_REGION_LENGTH__+0x7f8078>
    1182:	70 91 79 00 	lds	r23, 0x0079	; 0x800079 <__TEXT_REGION_LENGTH__+0x7f8079>
    1186:	80 91 00 01 	lds	r24, 0x0100	; 0x800100 <__DATA_REGION_ORIGIN__>
    118a:	0e 94 fa 06 	call	0xdf4	; 0xdf4 <ReadKeys>
    118e:	80 93 00 01 	sts	0x0100, r24	; 0x800100 <__DATA_REGION_ORIGIN__>
	#else
		//round up by default
		__ticks_dc = (uint32_t)(ceil(fabs(__tmp)));
	#endif

	__builtin_avr_delay_cycles(__ticks_dc);
    1192:	2f ef       	ldi	r18, 0xFF	; 255
    1194:	83 ec       	ldi	r24, 0xC3	; 195
    1196:	99 e0       	ldi	r25, 0x09	; 9
    1198:	21 50       	subi	r18, 0x01	; 1
    119a:	80 40       	sbci	r24, 0x00	; 0
    119c:	90 40       	sbci	r25, 0x00	; 0
    119e:	e1 f7       	brne	.-8      	; 0x1198 <main+0x64>
    11a0:	00 c0       	rjmp	.+0      	; 0x11a2 <main+0x6e>
    11a2:	00 00       	nop
		
		_delay_ms(200);
		Display(setting);			//Update the displayz
    11a4:	80 91 00 01 	lds	r24, 0x0100	; 0x800100 <__DATA_REGION_ORIGIN__>
    11a8:	0e 94 d2 07 	call	0xfa4	; 0xfa4 <Display>
		
		
		
		ValveSet(data[1]);
    11ac:	80 91 03 01 	lds	r24, 0x0103	; 0x800103 <data+0x2>
    11b0:	0e 94 ee 06 	call	0xddc	; 0xddc <ValveSet>
    11b4:	df cf       	rjmp	.-66     	; 0x1174 <main+0x40>

000011b6 <setupServoTimer>:
    11b6:	fc 01       	movw	r30, r24
    11b8:	40 81       	ld	r20, Z
    11ba:	21 e0       	ldi	r18, 0x01	; 1
    11bc:	30 e0       	ldi	r19, 0x00	; 0
    11be:	02 c0       	rjmp	.+4      	; 0x11c4 <setupServoTimer+0xe>
    11c0:	22 0f       	add	r18, r18
    11c2:	33 1f       	adc	r19, r19
    11c4:	6a 95       	dec	r22
    11c6:	e2 f7       	brpl	.-8      	; 0x11c0 <setupServoTimer+0xa>
    11c8:	24 2b       	or	r18, r20
    11ca:	20 83       	st	Z, r18
    11cc:	10 92 85 00 	sts	0x0085, r1	; 0x800085 <__TEXT_REGION_LENGTH__+0x7f8085>
    11d0:	10 92 84 00 	sts	0x0084, r1	; 0x800084 <__TEXT_REGION_LENGTH__+0x7f8084>
    11d4:	8f e3       	ldi	r24, 0x3F	; 63
    11d6:	9c e9       	ldi	r25, 0x9C	; 156
    11d8:	90 93 87 00 	sts	0x0087, r25	; 0x800087 <__TEXT_REGION_LENGTH__+0x7f8087>
    11dc:	80 93 86 00 	sts	0x0086, r24	; 0x800086 <__TEXT_REGION_LENGTH__+0x7f8086>
    11e0:	e0 e8       	ldi	r30, 0x80	; 128
    11e2:	f0 e0       	ldi	r31, 0x00	; 0
    11e4:	80 e8       	ldi	r24, 0x80	; 128
    11e6:	80 83       	st	Z, r24
    11e8:	80 81       	ld	r24, Z
    11ea:	82 60       	ori	r24, 0x02	; 2
    11ec:	80 83       	st	Z, r24
    11ee:	e1 e8       	ldi	r30, 0x81	; 129
    11f0:	f0 e0       	ldi	r31, 0x00	; 0
    11f2:	88 e1       	ldi	r24, 0x18	; 24
    11f4:	80 83       	st	Z, r24
    11f6:	80 81       	ld	r24, Z
    11f8:	82 60       	ori	r24, 0x02	; 2
    11fa:	80 83       	st	Z, r24
    11fc:	08 95       	ret

000011fe <moveServoTimer>:
    11fe:	20 ed       	ldi	r18, 0xD0	; 208
    1200:	37 e0       	ldi	r19, 0x07	; 7
    1202:	48 2f       	mov	r20, r24
    1204:	42 9f       	mul	r20, r18
    1206:	c0 01       	movw	r24, r0
    1208:	43 9f       	mul	r20, r19
    120a:	90 0d       	add	r25, r0
    120c:	11 24       	eor	r1, r1
    120e:	6a e5       	ldi	r22, 0x5A	; 90
    1210:	70 e0       	ldi	r23, 0x00	; 0
    1212:	0e 94 d5 0b 	call	0x17aa	; 0x17aa <__divmodhi4>
    1216:	07 2e       	mov	r0, r23
    1218:	00 0c       	add	r0, r0
    121a:	88 0b       	sbc	r24, r24
    121c:	99 0b       	sbc	r25, r25
    121e:	0e 94 31 0a 	call	0x1462	; 0x1462 <__floatsisf>
    1222:	0e 94 78 0b 	call	0x16f0	; 0x16f0 <round>
    1226:	0e 94 fa 09 	call	0x13f4	; 0x13f4 <__fixunssfsi>
    122a:	70 e0       	ldi	r23, 0x00	; 0
    122c:	70 93 8b 00 	sts	0x008B, r23	; 0x80008b <__TEXT_REGION_LENGTH__+0x7f808b>
    1230:	60 93 8a 00 	sts	0x008A, r22	; 0x80008a <__TEXT_REGION_LENGTH__+0x7f808a>
    1234:	08 95       	ret

00001236 <__subsf3>:
    1236:	50 58       	subi	r21, 0x80	; 128

00001238 <__addsf3>:
    1238:	bb 27       	eor	r27, r27
    123a:	aa 27       	eor	r26, r26
    123c:	0e 94 33 09 	call	0x1266	; 0x1266 <__addsf3x>
    1240:	0c 94 d1 0a 	jmp	0x15a2	; 0x15a2 <__fp_round>
    1244:	0e 94 c3 0a 	call	0x1586	; 0x1586 <__fp_pscA>
    1248:	38 f0       	brcs	.+14     	; 0x1258 <__addsf3+0x20>
    124a:	0e 94 ca 0a 	call	0x1594	; 0x1594 <__fp_pscB>
    124e:	20 f0       	brcs	.+8      	; 0x1258 <__addsf3+0x20>
    1250:	39 f4       	brne	.+14     	; 0x1260 <__addsf3+0x28>
    1252:	9f 3f       	cpi	r25, 0xFF	; 255
    1254:	19 f4       	brne	.+6      	; 0x125c <__addsf3+0x24>
    1256:	26 f4       	brtc	.+8      	; 0x1260 <__addsf3+0x28>
    1258:	0c 94 b0 0a 	jmp	0x1560	; 0x1560 <__fp_nan>
    125c:	0e f4       	brtc	.+2      	; 0x1260 <__addsf3+0x28>
    125e:	e0 95       	com	r30
    1260:	e7 fb       	bst	r30, 7
    1262:	0c 94 aa 0a 	jmp	0x1554	; 0x1554 <__fp_inf>

00001266 <__addsf3x>:
    1266:	e9 2f       	mov	r30, r25
    1268:	0e 94 e2 0a 	call	0x15c4	; 0x15c4 <__fp_split3>
    126c:	58 f3       	brcs	.-42     	; 0x1244 <__addsf3+0xc>
    126e:	ba 17       	cp	r27, r26
    1270:	62 07       	cpc	r22, r18
    1272:	73 07       	cpc	r23, r19
    1274:	84 07       	cpc	r24, r20
    1276:	95 07       	cpc	r25, r21
    1278:	20 f0       	brcs	.+8      	; 0x1282 <__addsf3x+0x1c>
    127a:	79 f4       	brne	.+30     	; 0x129a <__addsf3x+0x34>
    127c:	a6 f5       	brtc	.+104    	; 0x12e6 <__addsf3x+0x80>
    127e:	0c 94 04 0b 	jmp	0x1608	; 0x1608 <__fp_zero>
    1282:	0e f4       	brtc	.+2      	; 0x1286 <__addsf3x+0x20>
    1284:	e0 95       	com	r30
    1286:	0b 2e       	mov	r0, r27
    1288:	ba 2f       	mov	r27, r26
    128a:	a0 2d       	mov	r26, r0
    128c:	0b 01       	movw	r0, r22
    128e:	b9 01       	movw	r22, r18
    1290:	90 01       	movw	r18, r0
    1292:	0c 01       	movw	r0, r24
    1294:	ca 01       	movw	r24, r20
    1296:	a0 01       	movw	r20, r0
    1298:	11 24       	eor	r1, r1
    129a:	ff 27       	eor	r31, r31
    129c:	59 1b       	sub	r21, r25
    129e:	99 f0       	breq	.+38     	; 0x12c6 <__addsf3x+0x60>
    12a0:	59 3f       	cpi	r21, 0xF9	; 249
    12a2:	50 f4       	brcc	.+20     	; 0x12b8 <__addsf3x+0x52>
    12a4:	50 3e       	cpi	r21, 0xE0	; 224
    12a6:	68 f1       	brcs	.+90     	; 0x1302 <__addsf3x+0x9c>
    12a8:	1a 16       	cp	r1, r26
    12aa:	f0 40       	sbci	r31, 0x00	; 0
    12ac:	a2 2f       	mov	r26, r18
    12ae:	23 2f       	mov	r18, r19
    12b0:	34 2f       	mov	r19, r20
    12b2:	44 27       	eor	r20, r20
    12b4:	58 5f       	subi	r21, 0xF8	; 248
    12b6:	f3 cf       	rjmp	.-26     	; 0x129e <__addsf3x+0x38>
    12b8:	46 95       	lsr	r20
    12ba:	37 95       	ror	r19
    12bc:	27 95       	ror	r18
    12be:	a7 95       	ror	r26
    12c0:	f0 40       	sbci	r31, 0x00	; 0
    12c2:	53 95       	inc	r21
    12c4:	c9 f7       	brne	.-14     	; 0x12b8 <__addsf3x+0x52>
    12c6:	7e f4       	brtc	.+30     	; 0x12e6 <__addsf3x+0x80>
    12c8:	1f 16       	cp	r1, r31
    12ca:	ba 0b       	sbc	r27, r26
    12cc:	62 0b       	sbc	r22, r18
    12ce:	73 0b       	sbc	r23, r19
    12d0:	84 0b       	sbc	r24, r20
    12d2:	ba f0       	brmi	.+46     	; 0x1302 <__addsf3x+0x9c>
    12d4:	91 50       	subi	r25, 0x01	; 1
    12d6:	a1 f0       	breq	.+40     	; 0x1300 <__addsf3x+0x9a>
    12d8:	ff 0f       	add	r31, r31
    12da:	bb 1f       	adc	r27, r27
    12dc:	66 1f       	adc	r22, r22
    12de:	77 1f       	adc	r23, r23
    12e0:	88 1f       	adc	r24, r24
    12e2:	c2 f7       	brpl	.-16     	; 0x12d4 <__addsf3x+0x6e>
    12e4:	0e c0       	rjmp	.+28     	; 0x1302 <__addsf3x+0x9c>
    12e6:	ba 0f       	add	r27, r26
    12e8:	62 1f       	adc	r22, r18
    12ea:	73 1f       	adc	r23, r19
    12ec:	84 1f       	adc	r24, r20
    12ee:	48 f4       	brcc	.+18     	; 0x1302 <__addsf3x+0x9c>
    12f0:	87 95       	ror	r24
    12f2:	77 95       	ror	r23
    12f4:	67 95       	ror	r22
    12f6:	b7 95       	ror	r27
    12f8:	f7 95       	ror	r31
    12fa:	9e 3f       	cpi	r25, 0xFE	; 254
    12fc:	08 f0       	brcs	.+2      	; 0x1300 <__addsf3x+0x9a>
    12fe:	b0 cf       	rjmp	.-160    	; 0x1260 <__addsf3+0x28>
    1300:	93 95       	inc	r25
    1302:	88 0f       	add	r24, r24
    1304:	08 f0       	brcs	.+2      	; 0x1308 <__addsf3x+0xa2>
    1306:	99 27       	eor	r25, r25
    1308:	ee 0f       	add	r30, r30
    130a:	97 95       	ror	r25
    130c:	87 95       	ror	r24
    130e:	08 95       	ret

00001310 <__divsf3>:
    1310:	0e 94 9c 09 	call	0x1338	; 0x1338 <__divsf3x>
    1314:	0c 94 d1 0a 	jmp	0x15a2	; 0x15a2 <__fp_round>
    1318:	0e 94 ca 0a 	call	0x1594	; 0x1594 <__fp_pscB>
    131c:	58 f0       	brcs	.+22     	; 0x1334 <__divsf3+0x24>
    131e:	0e 94 c3 0a 	call	0x1586	; 0x1586 <__fp_pscA>
    1322:	40 f0       	brcs	.+16     	; 0x1334 <__divsf3+0x24>
    1324:	29 f4       	brne	.+10     	; 0x1330 <__divsf3+0x20>
    1326:	5f 3f       	cpi	r21, 0xFF	; 255
    1328:	29 f0       	breq	.+10     	; 0x1334 <__divsf3+0x24>
    132a:	0c 94 aa 0a 	jmp	0x1554	; 0x1554 <__fp_inf>
    132e:	51 11       	cpse	r21, r1
    1330:	0c 94 05 0b 	jmp	0x160a	; 0x160a <__fp_szero>
    1334:	0c 94 b0 0a 	jmp	0x1560	; 0x1560 <__fp_nan>

00001338 <__divsf3x>:
    1338:	0e 94 e2 0a 	call	0x15c4	; 0x15c4 <__fp_split3>
    133c:	68 f3       	brcs	.-38     	; 0x1318 <__divsf3+0x8>

0000133e <__divsf3_pse>:
    133e:	99 23       	and	r25, r25
    1340:	b1 f3       	breq	.-20     	; 0x132e <__divsf3+0x1e>
    1342:	55 23       	and	r21, r21
    1344:	91 f3       	breq	.-28     	; 0x132a <__divsf3+0x1a>
    1346:	95 1b       	sub	r25, r21
    1348:	55 0b       	sbc	r21, r21
    134a:	bb 27       	eor	r27, r27
    134c:	aa 27       	eor	r26, r26
    134e:	62 17       	cp	r22, r18
    1350:	73 07       	cpc	r23, r19
    1352:	84 07       	cpc	r24, r20
    1354:	38 f0       	brcs	.+14     	; 0x1364 <__divsf3_pse+0x26>
    1356:	9f 5f       	subi	r25, 0xFF	; 255
    1358:	5f 4f       	sbci	r21, 0xFF	; 255
    135a:	22 0f       	add	r18, r18
    135c:	33 1f       	adc	r19, r19
    135e:	44 1f       	adc	r20, r20
    1360:	aa 1f       	adc	r26, r26
    1362:	a9 f3       	breq	.-22     	; 0x134e <__divsf3_pse+0x10>
    1364:	35 d0       	rcall	.+106    	; 0x13d0 <__divsf3_pse+0x92>
    1366:	0e 2e       	mov	r0, r30
    1368:	3a f0       	brmi	.+14     	; 0x1378 <__divsf3_pse+0x3a>
    136a:	e0 e8       	ldi	r30, 0x80	; 128
    136c:	32 d0       	rcall	.+100    	; 0x13d2 <__divsf3_pse+0x94>
    136e:	91 50       	subi	r25, 0x01	; 1
    1370:	50 40       	sbci	r21, 0x00	; 0
    1372:	e6 95       	lsr	r30
    1374:	00 1c       	adc	r0, r0
    1376:	ca f7       	brpl	.-14     	; 0x136a <__divsf3_pse+0x2c>
    1378:	2b d0       	rcall	.+86     	; 0x13d0 <__divsf3_pse+0x92>
    137a:	fe 2f       	mov	r31, r30
    137c:	29 d0       	rcall	.+82     	; 0x13d0 <__divsf3_pse+0x92>
    137e:	66 0f       	add	r22, r22
    1380:	77 1f       	adc	r23, r23
    1382:	88 1f       	adc	r24, r24
    1384:	bb 1f       	adc	r27, r27
    1386:	26 17       	cp	r18, r22
    1388:	37 07       	cpc	r19, r23
    138a:	48 07       	cpc	r20, r24
    138c:	ab 07       	cpc	r26, r27
    138e:	b0 e8       	ldi	r27, 0x80	; 128
    1390:	09 f0       	breq	.+2      	; 0x1394 <__divsf3_pse+0x56>
    1392:	bb 0b       	sbc	r27, r27
    1394:	80 2d       	mov	r24, r0
    1396:	bf 01       	movw	r22, r30
    1398:	ff 27       	eor	r31, r31
    139a:	93 58       	subi	r25, 0x83	; 131
    139c:	5f 4f       	sbci	r21, 0xFF	; 255
    139e:	3a f0       	brmi	.+14     	; 0x13ae <__divsf3_pse+0x70>
    13a0:	9e 3f       	cpi	r25, 0xFE	; 254
    13a2:	51 05       	cpc	r21, r1
    13a4:	78 f0       	brcs	.+30     	; 0x13c4 <__divsf3_pse+0x86>
    13a6:	0c 94 aa 0a 	jmp	0x1554	; 0x1554 <__fp_inf>
    13aa:	0c 94 05 0b 	jmp	0x160a	; 0x160a <__fp_szero>
    13ae:	5f 3f       	cpi	r21, 0xFF	; 255
    13b0:	e4 f3       	brlt	.-8      	; 0x13aa <__divsf3_pse+0x6c>
    13b2:	98 3e       	cpi	r25, 0xE8	; 232
    13b4:	d4 f3       	brlt	.-12     	; 0x13aa <__divsf3_pse+0x6c>
    13b6:	86 95       	lsr	r24
    13b8:	77 95       	ror	r23
    13ba:	67 95       	ror	r22
    13bc:	b7 95       	ror	r27
    13be:	f7 95       	ror	r31
    13c0:	9f 5f       	subi	r25, 0xFF	; 255
    13c2:	c9 f7       	brne	.-14     	; 0x13b6 <__divsf3_pse+0x78>
    13c4:	88 0f       	add	r24, r24
    13c6:	91 1d       	adc	r25, r1
    13c8:	96 95       	lsr	r25
    13ca:	87 95       	ror	r24
    13cc:	97 f9       	bld	r25, 7
    13ce:	08 95       	ret
    13d0:	e1 e0       	ldi	r30, 0x01	; 1
    13d2:	66 0f       	add	r22, r22
    13d4:	77 1f       	adc	r23, r23
    13d6:	88 1f       	adc	r24, r24
    13d8:	bb 1f       	adc	r27, r27
    13da:	62 17       	cp	r22, r18
    13dc:	73 07       	cpc	r23, r19
    13de:	84 07       	cpc	r24, r20
    13e0:	ba 07       	cpc	r27, r26
    13e2:	20 f0       	brcs	.+8      	; 0x13ec <__divsf3_pse+0xae>
    13e4:	62 1b       	sub	r22, r18
    13e6:	73 0b       	sbc	r23, r19
    13e8:	84 0b       	sbc	r24, r20
    13ea:	ba 0b       	sbc	r27, r26
    13ec:	ee 1f       	adc	r30, r30
    13ee:	88 f7       	brcc	.-30     	; 0x13d2 <__divsf3_pse+0x94>
    13f0:	e0 95       	com	r30
    13f2:	08 95       	ret

000013f4 <__fixunssfsi>:
    13f4:	0e 94 ea 0a 	call	0x15d4	; 0x15d4 <__fp_splitA>
    13f8:	88 f0       	brcs	.+34     	; 0x141c <__fixunssfsi+0x28>
    13fa:	9f 57       	subi	r25, 0x7F	; 127
    13fc:	98 f0       	brcs	.+38     	; 0x1424 <__fixunssfsi+0x30>
    13fe:	b9 2f       	mov	r27, r25
    1400:	99 27       	eor	r25, r25
    1402:	b7 51       	subi	r27, 0x17	; 23
    1404:	b0 f0       	brcs	.+44     	; 0x1432 <__fixunssfsi+0x3e>
    1406:	e1 f0       	breq	.+56     	; 0x1440 <__fixunssfsi+0x4c>
    1408:	66 0f       	add	r22, r22
    140a:	77 1f       	adc	r23, r23
    140c:	88 1f       	adc	r24, r24
    140e:	99 1f       	adc	r25, r25
    1410:	1a f0       	brmi	.+6      	; 0x1418 <__fixunssfsi+0x24>
    1412:	ba 95       	dec	r27
    1414:	c9 f7       	brne	.-14     	; 0x1408 <__fixunssfsi+0x14>
    1416:	14 c0       	rjmp	.+40     	; 0x1440 <__fixunssfsi+0x4c>
    1418:	b1 30       	cpi	r27, 0x01	; 1
    141a:	91 f0       	breq	.+36     	; 0x1440 <__fixunssfsi+0x4c>
    141c:	0e 94 04 0b 	call	0x1608	; 0x1608 <__fp_zero>
    1420:	b1 e0       	ldi	r27, 0x01	; 1
    1422:	08 95       	ret
    1424:	0c 94 04 0b 	jmp	0x1608	; 0x1608 <__fp_zero>
    1428:	67 2f       	mov	r22, r23
    142a:	78 2f       	mov	r23, r24
    142c:	88 27       	eor	r24, r24
    142e:	b8 5f       	subi	r27, 0xF8	; 248
    1430:	39 f0       	breq	.+14     	; 0x1440 <__fixunssfsi+0x4c>
    1432:	b9 3f       	cpi	r27, 0xF9	; 249
    1434:	cc f3       	brlt	.-14     	; 0x1428 <__fixunssfsi+0x34>
    1436:	86 95       	lsr	r24
    1438:	77 95       	ror	r23
    143a:	67 95       	ror	r22
    143c:	b3 95       	inc	r27
    143e:	d9 f7       	brne	.-10     	; 0x1436 <__fixunssfsi+0x42>
    1440:	3e f4       	brtc	.+14     	; 0x1450 <__fixunssfsi+0x5c>
    1442:	90 95       	com	r25
    1444:	80 95       	com	r24
    1446:	70 95       	com	r23
    1448:	61 95       	neg	r22
    144a:	7f 4f       	sbci	r23, 0xFF	; 255
    144c:	8f 4f       	sbci	r24, 0xFF	; 255
    144e:	9f 4f       	sbci	r25, 0xFF	; 255
    1450:	08 95       	ret

00001452 <__floatdisf>:
    1452:	97 fb       	bst	r25, 7
    1454:	16 f4       	brtc	.+4      	; 0x145a <__floatdisf+0x8>
    1456:	0e 94 b3 0a 	call	0x1566	; 0x1566 <__fp_negdi>
    145a:	0c 94 6d 0a 	jmp	0x14da	; 0x14da <__fp_di2sf>

0000145e <__floatunsisf>:
    145e:	e8 94       	clt
    1460:	09 c0       	rjmp	.+18     	; 0x1474 <__floatsisf+0x12>

00001462 <__floatsisf>:
    1462:	97 fb       	bst	r25, 7
    1464:	3e f4       	brtc	.+14     	; 0x1474 <__floatsisf+0x12>
    1466:	90 95       	com	r25
    1468:	80 95       	com	r24
    146a:	70 95       	com	r23
    146c:	61 95       	neg	r22
    146e:	7f 4f       	sbci	r23, 0xFF	; 255
    1470:	8f 4f       	sbci	r24, 0xFF	; 255
    1472:	9f 4f       	sbci	r25, 0xFF	; 255
    1474:	99 23       	and	r25, r25
    1476:	a9 f0       	breq	.+42     	; 0x14a2 <__floatsisf+0x40>
    1478:	f9 2f       	mov	r31, r25
    147a:	96 e9       	ldi	r25, 0x96	; 150
    147c:	bb 27       	eor	r27, r27
    147e:	93 95       	inc	r25
    1480:	f6 95       	lsr	r31
    1482:	87 95       	ror	r24
    1484:	77 95       	ror	r23
    1486:	67 95       	ror	r22
    1488:	b7 95       	ror	r27
    148a:	f1 11       	cpse	r31, r1
    148c:	f8 cf       	rjmp	.-16     	; 0x147e <__floatsisf+0x1c>
    148e:	fa f4       	brpl	.+62     	; 0x14ce <__floatsisf+0x6c>
    1490:	bb 0f       	add	r27, r27
    1492:	11 f4       	brne	.+4      	; 0x1498 <__floatsisf+0x36>
    1494:	60 ff       	sbrs	r22, 0
    1496:	1b c0       	rjmp	.+54     	; 0x14ce <__floatsisf+0x6c>
    1498:	6f 5f       	subi	r22, 0xFF	; 255
    149a:	7f 4f       	sbci	r23, 0xFF	; 255
    149c:	8f 4f       	sbci	r24, 0xFF	; 255
    149e:	9f 4f       	sbci	r25, 0xFF	; 255
    14a0:	16 c0       	rjmp	.+44     	; 0x14ce <__floatsisf+0x6c>
    14a2:	88 23       	and	r24, r24
    14a4:	11 f0       	breq	.+4      	; 0x14aa <__floatsisf+0x48>
    14a6:	96 e9       	ldi	r25, 0x96	; 150
    14a8:	11 c0       	rjmp	.+34     	; 0x14cc <__floatsisf+0x6a>
    14aa:	77 23       	and	r23, r23
    14ac:	21 f0       	breq	.+8      	; 0x14b6 <__floatsisf+0x54>
    14ae:	9e e8       	ldi	r25, 0x8E	; 142
    14b0:	87 2f       	mov	r24, r23
    14b2:	76 2f       	mov	r23, r22
    14b4:	05 c0       	rjmp	.+10     	; 0x14c0 <__floatsisf+0x5e>
    14b6:	66 23       	and	r22, r22
    14b8:	71 f0       	breq	.+28     	; 0x14d6 <__floatsisf+0x74>
    14ba:	96 e8       	ldi	r25, 0x86	; 134
    14bc:	86 2f       	mov	r24, r22
    14be:	70 e0       	ldi	r23, 0x00	; 0
    14c0:	60 e0       	ldi	r22, 0x00	; 0
    14c2:	2a f0       	brmi	.+10     	; 0x14ce <__floatsisf+0x6c>
    14c4:	9a 95       	dec	r25
    14c6:	66 0f       	add	r22, r22
    14c8:	77 1f       	adc	r23, r23
    14ca:	88 1f       	adc	r24, r24
    14cc:	da f7       	brpl	.-10     	; 0x14c4 <__floatsisf+0x62>
    14ce:	88 0f       	add	r24, r24
    14d0:	96 95       	lsr	r25
    14d2:	87 95       	ror	r24
    14d4:	97 f9       	bld	r25, 7
    14d6:	08 95       	ret

000014d8 <__floatundisf>:
    14d8:	e8 94       	clt

000014da <__fp_di2sf>:
    14da:	f9 2f       	mov	r31, r25
    14dc:	96 eb       	ldi	r25, 0xB6	; 182
    14de:	ff 23       	and	r31, r31
    14e0:	81 f0       	breq	.+32     	; 0x1502 <__fp_di2sf+0x28>
    14e2:	12 16       	cp	r1, r18
    14e4:	13 06       	cpc	r1, r19
    14e6:	14 06       	cpc	r1, r20
    14e8:	44 0b       	sbc	r20, r20
    14ea:	93 95       	inc	r25
    14ec:	f6 95       	lsr	r31
    14ee:	87 95       	ror	r24
    14f0:	77 95       	ror	r23
    14f2:	67 95       	ror	r22
    14f4:	57 95       	ror	r21
    14f6:	40 40       	sbci	r20, 0x00	; 0
    14f8:	ff 23       	and	r31, r31
    14fa:	b9 f7       	brne	.-18     	; 0x14ea <__fp_di2sf+0x10>
    14fc:	1b c0       	rjmp	.+54     	; 0x1534 <__fp_di2sf+0x5a>
    14fe:	99 27       	eor	r25, r25
    1500:	08 95       	ret
    1502:	88 23       	and	r24, r24
    1504:	51 f4       	brne	.+20     	; 0x151a <__fp_di2sf+0x40>
    1506:	98 50       	subi	r25, 0x08	; 8
    1508:	d2 f7       	brpl	.-12     	; 0x14fe <__fp_di2sf+0x24>
    150a:	87 2b       	or	r24, r23
    150c:	76 2f       	mov	r23, r22
    150e:	65 2f       	mov	r22, r21
    1510:	54 2f       	mov	r21, r20
    1512:	43 2f       	mov	r20, r19
    1514:	32 2f       	mov	r19, r18
    1516:	20 e0       	ldi	r18, 0x00	; 0
    1518:	b1 f3       	breq	.-20     	; 0x1506 <__fp_di2sf+0x2c>
    151a:	12 16       	cp	r1, r18
    151c:	13 06       	cpc	r1, r19
    151e:	14 06       	cpc	r1, r20
    1520:	44 0b       	sbc	r20, r20
    1522:	88 23       	and	r24, r24
    1524:	3a f0       	brmi	.+14     	; 0x1534 <__fp_di2sf+0x5a>
    1526:	9a 95       	dec	r25
    1528:	44 0f       	add	r20, r20
    152a:	55 1f       	adc	r21, r21
    152c:	66 1f       	adc	r22, r22
    152e:	77 1f       	adc	r23, r23
    1530:	88 1f       	adc	r24, r24
    1532:	ca f7       	brpl	.-14     	; 0x1526 <__fp_di2sf+0x4c>
    1534:	55 23       	and	r21, r21
    1536:	4a f4       	brpl	.+18     	; 0x154a <__fp_di2sf+0x70>
    1538:	44 0f       	add	r20, r20
    153a:	55 1f       	adc	r21, r21
    153c:	11 f4       	brne	.+4      	; 0x1542 <__fp_di2sf+0x68>
    153e:	60 ff       	sbrs	r22, 0
    1540:	04 c0       	rjmp	.+8      	; 0x154a <__fp_di2sf+0x70>
    1542:	6f 5f       	subi	r22, 0xFF	; 255
    1544:	7f 4f       	sbci	r23, 0xFF	; 255
    1546:	8f 4f       	sbci	r24, 0xFF	; 255
    1548:	9f 4f       	sbci	r25, 0xFF	; 255
    154a:	88 0f       	add	r24, r24
    154c:	96 95       	lsr	r25
    154e:	87 95       	ror	r24
    1550:	97 f9       	bld	r25, 7
    1552:	08 95       	ret

00001554 <__fp_inf>:
    1554:	97 f9       	bld	r25, 7
    1556:	9f 67       	ori	r25, 0x7F	; 127
    1558:	80 e8       	ldi	r24, 0x80	; 128
    155a:	70 e0       	ldi	r23, 0x00	; 0
    155c:	60 e0       	ldi	r22, 0x00	; 0
    155e:	08 95       	ret

00001560 <__fp_nan>:
    1560:	9f ef       	ldi	r25, 0xFF	; 255
    1562:	80 ec       	ldi	r24, 0xC0	; 192
    1564:	08 95       	ret

00001566 <__fp_negdi>:
    1566:	90 95       	com	r25
    1568:	80 95       	com	r24
    156a:	70 95       	com	r23
    156c:	60 95       	com	r22
    156e:	50 95       	com	r21
    1570:	40 95       	com	r20
    1572:	30 95       	com	r19
    1574:	21 95       	neg	r18
    1576:	3f 4f       	sbci	r19, 0xFF	; 255
    1578:	4f 4f       	sbci	r20, 0xFF	; 255
    157a:	5f 4f       	sbci	r21, 0xFF	; 255
    157c:	6f 4f       	sbci	r22, 0xFF	; 255
    157e:	7f 4f       	sbci	r23, 0xFF	; 255
    1580:	8f 4f       	sbci	r24, 0xFF	; 255
    1582:	9f 4f       	sbci	r25, 0xFF	; 255
    1584:	08 95       	ret

00001586 <__fp_pscA>:
    1586:	00 24       	eor	r0, r0
    1588:	0a 94       	dec	r0
    158a:	16 16       	cp	r1, r22
    158c:	17 06       	cpc	r1, r23
    158e:	18 06       	cpc	r1, r24
    1590:	09 06       	cpc	r0, r25
    1592:	08 95       	ret

00001594 <__fp_pscB>:
    1594:	00 24       	eor	r0, r0
    1596:	0a 94       	dec	r0
    1598:	12 16       	cp	r1, r18
    159a:	13 06       	cpc	r1, r19
    159c:	14 06       	cpc	r1, r20
    159e:	05 06       	cpc	r0, r21
    15a0:	08 95       	ret

000015a2 <__fp_round>:
    15a2:	09 2e       	mov	r0, r25
    15a4:	03 94       	inc	r0
    15a6:	00 0c       	add	r0, r0
    15a8:	11 f4       	brne	.+4      	; 0x15ae <__fp_round+0xc>
    15aa:	88 23       	and	r24, r24
    15ac:	52 f0       	brmi	.+20     	; 0x15c2 <__fp_round+0x20>
    15ae:	bb 0f       	add	r27, r27
    15b0:	40 f4       	brcc	.+16     	; 0x15c2 <__fp_round+0x20>
    15b2:	bf 2b       	or	r27, r31
    15b4:	11 f4       	brne	.+4      	; 0x15ba <__fp_round+0x18>
    15b6:	60 ff       	sbrs	r22, 0
    15b8:	04 c0       	rjmp	.+8      	; 0x15c2 <__fp_round+0x20>
    15ba:	6f 5f       	subi	r22, 0xFF	; 255
    15bc:	7f 4f       	sbci	r23, 0xFF	; 255
    15be:	8f 4f       	sbci	r24, 0xFF	; 255
    15c0:	9f 4f       	sbci	r25, 0xFF	; 255
    15c2:	08 95       	ret

000015c4 <__fp_split3>:
    15c4:	57 fd       	sbrc	r21, 7
    15c6:	90 58       	subi	r25, 0x80	; 128
    15c8:	44 0f       	add	r20, r20
    15ca:	55 1f       	adc	r21, r21
    15cc:	59 f0       	breq	.+22     	; 0x15e4 <__fp_splitA+0x10>
    15ce:	5f 3f       	cpi	r21, 0xFF	; 255
    15d0:	71 f0       	breq	.+28     	; 0x15ee <__fp_splitA+0x1a>
    15d2:	47 95       	ror	r20

000015d4 <__fp_splitA>:
    15d4:	88 0f       	add	r24, r24
    15d6:	97 fb       	bst	r25, 7
    15d8:	99 1f       	adc	r25, r25
    15da:	61 f0       	breq	.+24     	; 0x15f4 <__fp_splitA+0x20>
    15dc:	9f 3f       	cpi	r25, 0xFF	; 255
    15de:	79 f0       	breq	.+30     	; 0x15fe <__fp_splitA+0x2a>
    15e0:	87 95       	ror	r24
    15e2:	08 95       	ret
    15e4:	12 16       	cp	r1, r18
    15e6:	13 06       	cpc	r1, r19
    15e8:	14 06       	cpc	r1, r20
    15ea:	55 1f       	adc	r21, r21
    15ec:	f2 cf       	rjmp	.-28     	; 0x15d2 <__fp_split3+0xe>
    15ee:	46 95       	lsr	r20
    15f0:	f1 df       	rcall	.-30     	; 0x15d4 <__fp_splitA>
    15f2:	08 c0       	rjmp	.+16     	; 0x1604 <__fp_splitA+0x30>
    15f4:	16 16       	cp	r1, r22
    15f6:	17 06       	cpc	r1, r23
    15f8:	18 06       	cpc	r1, r24
    15fa:	99 1f       	adc	r25, r25
    15fc:	f1 cf       	rjmp	.-30     	; 0x15e0 <__fp_splitA+0xc>
    15fe:	86 95       	lsr	r24
    1600:	71 05       	cpc	r23, r1
    1602:	61 05       	cpc	r22, r1
    1604:	08 94       	sec
    1606:	08 95       	ret

00001608 <__fp_zero>:
    1608:	e8 94       	clt

0000160a <__fp_szero>:
    160a:	bb 27       	eor	r27, r27
    160c:	66 27       	eor	r22, r22
    160e:	77 27       	eor	r23, r23
    1610:	cb 01       	movw	r24, r22
    1612:	97 f9       	bld	r25, 7
    1614:	08 95       	ret

00001616 <__mulsf3>:
    1616:	0e 94 1e 0b 	call	0x163c	; 0x163c <__mulsf3x>
    161a:	0c 94 d1 0a 	jmp	0x15a2	; 0x15a2 <__fp_round>
    161e:	0e 94 c3 0a 	call	0x1586	; 0x1586 <__fp_pscA>
    1622:	38 f0       	brcs	.+14     	; 0x1632 <__mulsf3+0x1c>
    1624:	0e 94 ca 0a 	call	0x1594	; 0x1594 <__fp_pscB>
    1628:	20 f0       	brcs	.+8      	; 0x1632 <__mulsf3+0x1c>
    162a:	95 23       	and	r25, r21
    162c:	11 f0       	breq	.+4      	; 0x1632 <__mulsf3+0x1c>
    162e:	0c 94 aa 0a 	jmp	0x1554	; 0x1554 <__fp_inf>
    1632:	0c 94 b0 0a 	jmp	0x1560	; 0x1560 <__fp_nan>
    1636:	11 24       	eor	r1, r1
    1638:	0c 94 05 0b 	jmp	0x160a	; 0x160a <__fp_szero>

0000163c <__mulsf3x>:
    163c:	0e 94 e2 0a 	call	0x15c4	; 0x15c4 <__fp_split3>
    1640:	70 f3       	brcs	.-36     	; 0x161e <__mulsf3+0x8>

00001642 <__mulsf3_pse>:
    1642:	95 9f       	mul	r25, r21
    1644:	c1 f3       	breq	.-16     	; 0x1636 <__mulsf3+0x20>
    1646:	95 0f       	add	r25, r21
    1648:	50 e0       	ldi	r21, 0x00	; 0
    164a:	55 1f       	adc	r21, r21
    164c:	62 9f       	mul	r22, r18
    164e:	f0 01       	movw	r30, r0
    1650:	72 9f       	mul	r23, r18
    1652:	bb 27       	eor	r27, r27
    1654:	f0 0d       	add	r31, r0
    1656:	b1 1d       	adc	r27, r1
    1658:	63 9f       	mul	r22, r19
    165a:	aa 27       	eor	r26, r26
    165c:	f0 0d       	add	r31, r0
    165e:	b1 1d       	adc	r27, r1
    1660:	aa 1f       	adc	r26, r26
    1662:	64 9f       	mul	r22, r20
    1664:	66 27       	eor	r22, r22
    1666:	b0 0d       	add	r27, r0
    1668:	a1 1d       	adc	r26, r1
    166a:	66 1f       	adc	r22, r22
    166c:	82 9f       	mul	r24, r18
    166e:	22 27       	eor	r18, r18
    1670:	b0 0d       	add	r27, r0
    1672:	a1 1d       	adc	r26, r1
    1674:	62 1f       	adc	r22, r18
    1676:	73 9f       	mul	r23, r19
    1678:	b0 0d       	add	r27, r0
    167a:	a1 1d       	adc	r26, r1
    167c:	62 1f       	adc	r22, r18
    167e:	83 9f       	mul	r24, r19
    1680:	a0 0d       	add	r26, r0
    1682:	61 1d       	adc	r22, r1
    1684:	22 1f       	adc	r18, r18
    1686:	74 9f       	mul	r23, r20
    1688:	33 27       	eor	r19, r19
    168a:	a0 0d       	add	r26, r0
    168c:	61 1d       	adc	r22, r1
    168e:	23 1f       	adc	r18, r19
    1690:	84 9f       	mul	r24, r20
    1692:	60 0d       	add	r22, r0
    1694:	21 1d       	adc	r18, r1
    1696:	82 2f       	mov	r24, r18
    1698:	76 2f       	mov	r23, r22
    169a:	6a 2f       	mov	r22, r26
    169c:	11 24       	eor	r1, r1
    169e:	9f 57       	subi	r25, 0x7F	; 127
    16a0:	50 40       	sbci	r21, 0x00	; 0
    16a2:	9a f0       	brmi	.+38     	; 0x16ca <__mulsf3_pse+0x88>
    16a4:	f1 f0       	breq	.+60     	; 0x16e2 <__mulsf3_pse+0xa0>
    16a6:	88 23       	and	r24, r24
    16a8:	4a f0       	brmi	.+18     	; 0x16bc <__mulsf3_pse+0x7a>
    16aa:	ee 0f       	add	r30, r30
    16ac:	ff 1f       	adc	r31, r31
    16ae:	bb 1f       	adc	r27, r27
    16b0:	66 1f       	adc	r22, r22
    16b2:	77 1f       	adc	r23, r23
    16b4:	88 1f       	adc	r24, r24
    16b6:	91 50       	subi	r25, 0x01	; 1
    16b8:	50 40       	sbci	r21, 0x00	; 0
    16ba:	a9 f7       	brne	.-22     	; 0x16a6 <__mulsf3_pse+0x64>
    16bc:	9e 3f       	cpi	r25, 0xFE	; 254
    16be:	51 05       	cpc	r21, r1
    16c0:	80 f0       	brcs	.+32     	; 0x16e2 <__mulsf3_pse+0xa0>
    16c2:	0c 94 aa 0a 	jmp	0x1554	; 0x1554 <__fp_inf>
    16c6:	0c 94 05 0b 	jmp	0x160a	; 0x160a <__fp_szero>
    16ca:	5f 3f       	cpi	r21, 0xFF	; 255
    16cc:	e4 f3       	brlt	.-8      	; 0x16c6 <__mulsf3_pse+0x84>
    16ce:	98 3e       	cpi	r25, 0xE8	; 232
    16d0:	d4 f3       	brlt	.-12     	; 0x16c6 <__mulsf3_pse+0x84>
    16d2:	86 95       	lsr	r24
    16d4:	77 95       	ror	r23
    16d6:	67 95       	ror	r22
    16d8:	b7 95       	ror	r27
    16da:	f7 95       	ror	r31
    16dc:	e7 95       	ror	r30
    16de:	9f 5f       	subi	r25, 0xFF	; 255
    16e0:	c1 f7       	brne	.-16     	; 0x16d2 <__mulsf3_pse+0x90>
    16e2:	fe 2b       	or	r31, r30
    16e4:	88 0f       	add	r24, r24
    16e6:	91 1d       	adc	r25, r1
    16e8:	96 95       	lsr	r25
    16ea:	87 95       	ror	r24
    16ec:	97 f9       	bld	r25, 7
    16ee:	08 95       	ret

000016f0 <round>:
    16f0:	0e 94 ea 0a 	call	0x15d4	; 0x15d4 <__fp_splitA>
    16f4:	e8 f0       	brcs	.+58     	; 0x1730 <round+0x40>
    16f6:	9e 37       	cpi	r25, 0x7E	; 126
    16f8:	e8 f0       	brcs	.+58     	; 0x1734 <round+0x44>
    16fa:	96 39       	cpi	r25, 0x96	; 150
    16fc:	b8 f4       	brcc	.+46     	; 0x172c <round+0x3c>
    16fe:	9e 38       	cpi	r25, 0x8E	; 142
    1700:	48 f4       	brcc	.+18     	; 0x1714 <round+0x24>
    1702:	67 2f       	mov	r22, r23
    1704:	78 2f       	mov	r23, r24
    1706:	88 27       	eor	r24, r24
    1708:	98 5f       	subi	r25, 0xF8	; 248
    170a:	f9 cf       	rjmp	.-14     	; 0x16fe <round+0xe>
    170c:	86 95       	lsr	r24
    170e:	77 95       	ror	r23
    1710:	67 95       	ror	r22
    1712:	93 95       	inc	r25
    1714:	95 39       	cpi	r25, 0x95	; 149
    1716:	d0 f3       	brcs	.-12     	; 0x170c <round+0x1c>
    1718:	b6 2f       	mov	r27, r22
    171a:	b1 70       	andi	r27, 0x01	; 1
    171c:	6b 0f       	add	r22, r27
    171e:	71 1d       	adc	r23, r1
    1720:	81 1d       	adc	r24, r1
    1722:	20 f4       	brcc	.+8      	; 0x172c <round+0x3c>
    1724:	87 95       	ror	r24
    1726:	77 95       	ror	r23
    1728:	67 95       	ror	r22
    172a:	93 95       	inc	r25
    172c:	0c 94 9c 0b 	jmp	0x1738	; 0x1738 <__fp_mintl>
    1730:	0c 94 b7 0b 	jmp	0x176e	; 0x176e <__fp_mpack>
    1734:	0c 94 05 0b 	jmp	0x160a	; 0x160a <__fp_szero>

00001738 <__fp_mintl>:
    1738:	88 23       	and	r24, r24
    173a:	71 f4       	brne	.+28     	; 0x1758 <__fp_mintl+0x20>
    173c:	77 23       	and	r23, r23
    173e:	21 f0       	breq	.+8      	; 0x1748 <__fp_mintl+0x10>
    1740:	98 50       	subi	r25, 0x08	; 8
    1742:	87 2b       	or	r24, r23
    1744:	76 2f       	mov	r23, r22
    1746:	07 c0       	rjmp	.+14     	; 0x1756 <__fp_mintl+0x1e>
    1748:	66 23       	and	r22, r22
    174a:	11 f4       	brne	.+4      	; 0x1750 <__fp_mintl+0x18>
    174c:	99 27       	eor	r25, r25
    174e:	0d c0       	rjmp	.+26     	; 0x176a <__fp_mintl+0x32>
    1750:	90 51       	subi	r25, 0x10	; 16
    1752:	86 2b       	or	r24, r22
    1754:	70 e0       	ldi	r23, 0x00	; 0
    1756:	60 e0       	ldi	r22, 0x00	; 0
    1758:	2a f0       	brmi	.+10     	; 0x1764 <__fp_mintl+0x2c>
    175a:	9a 95       	dec	r25
    175c:	66 0f       	add	r22, r22
    175e:	77 1f       	adc	r23, r23
    1760:	88 1f       	adc	r24, r24
    1762:	da f7       	brpl	.-10     	; 0x175a <__fp_mintl+0x22>
    1764:	88 0f       	add	r24, r24
    1766:	96 95       	lsr	r25
    1768:	87 95       	ror	r24
    176a:	97 f9       	bld	r25, 7
    176c:	08 95       	ret

0000176e <__fp_mpack>:
    176e:	9f 3f       	cpi	r25, 0xFF	; 255
    1770:	31 f0       	breq	.+12     	; 0x177e <__fp_mpack_finite+0xc>

00001772 <__fp_mpack_finite>:
    1772:	91 50       	subi	r25, 0x01	; 1
    1774:	20 f4       	brcc	.+8      	; 0x177e <__fp_mpack_finite+0xc>
    1776:	87 95       	ror	r24
    1778:	77 95       	ror	r23
    177a:	67 95       	ror	r22
    177c:	b7 95       	ror	r27
    177e:	88 0f       	add	r24, r24
    1780:	91 1d       	adc	r25, r1
    1782:	96 95       	lsr	r25
    1784:	87 95       	ror	r24
    1786:	97 f9       	bld	r25, 7
    1788:	08 95       	ret

0000178a <__mulsi3>:
    178a:	db 01       	movw	r26, r22
    178c:	8f 93       	push	r24
    178e:	9f 93       	push	r25
    1790:	0e 94 e9 0b 	call	0x17d2	; 0x17d2 <__muluhisi3>
    1794:	bf 91       	pop	r27
    1796:	af 91       	pop	r26
    1798:	a2 9f       	mul	r26, r18
    179a:	80 0d       	add	r24, r0
    179c:	91 1d       	adc	r25, r1
    179e:	a3 9f       	mul	r26, r19
    17a0:	90 0d       	add	r25, r0
    17a2:	b2 9f       	mul	r27, r18
    17a4:	90 0d       	add	r25, r0
    17a6:	11 24       	eor	r1, r1
    17a8:	08 95       	ret

000017aa <__divmodhi4>:
    17aa:	97 fb       	bst	r25, 7
    17ac:	07 2e       	mov	r0, r23
    17ae:	16 f4       	brtc	.+4      	; 0x17b4 <__divmodhi4+0xa>
    17b0:	00 94       	com	r0
    17b2:	07 d0       	rcall	.+14     	; 0x17c2 <__divmodhi4_neg1>
    17b4:	77 fd       	sbrc	r23, 7
    17b6:	09 d0       	rcall	.+18     	; 0x17ca <__divmodhi4_neg2>
    17b8:	0e 94 81 0d 	call	0x1b02	; 0x1b02 <__udivmodhi4>
    17bc:	07 fc       	sbrc	r0, 7
    17be:	05 d0       	rcall	.+10     	; 0x17ca <__divmodhi4_neg2>
    17c0:	3e f4       	brtc	.+14     	; 0x17d0 <__divmodhi4_exit>

000017c2 <__divmodhi4_neg1>:
    17c2:	90 95       	com	r25
    17c4:	81 95       	neg	r24
    17c6:	9f 4f       	sbci	r25, 0xFF	; 255
    17c8:	08 95       	ret

000017ca <__divmodhi4_neg2>:
    17ca:	70 95       	com	r23
    17cc:	61 95       	neg	r22
    17ce:	7f 4f       	sbci	r23, 0xFF	; 255

000017d0 <__divmodhi4_exit>:
    17d0:	08 95       	ret

000017d2 <__muluhisi3>:
    17d2:	0e 94 95 0d 	call	0x1b2a	; 0x1b2a <__umulhisi3>
    17d6:	a5 9f       	mul	r26, r21
    17d8:	90 0d       	add	r25, r0
    17da:	b4 9f       	mul	r27, r20
    17dc:	90 0d       	add	r25, r0
    17de:	a4 9f       	mul	r26, r20
    17e0:	80 0d       	add	r24, r0
    17e2:	91 1d       	adc	r25, r1
    17e4:	11 24       	eor	r1, r1
    17e6:	08 95       	ret

000017e8 <__mulshisi3>:
    17e8:	b7 ff       	sbrs	r27, 7
    17ea:	0c 94 e9 0b 	jmp	0x17d2	; 0x17d2 <__muluhisi3>

000017ee <__mulohisi3>:
    17ee:	0e 94 e9 0b 	call	0x17d2	; 0x17d2 <__muluhisi3>
    17f2:	82 1b       	sub	r24, r18
    17f4:	93 0b       	sbc	r25, r19
    17f6:	08 95       	ret

000017f8 <__muldi3>:
    17f8:	df 93       	push	r29
    17fa:	cf 93       	push	r28
    17fc:	1f 93       	push	r17
    17fe:	0f 93       	push	r16
    1800:	9a 9d       	mul	r25, r10
    1802:	f0 2d       	mov	r31, r0
    1804:	21 9f       	mul	r18, r17
    1806:	f0 0d       	add	r31, r0
    1808:	8b 9d       	mul	r24, r11
    180a:	f0 0d       	add	r31, r0
    180c:	8a 9d       	mul	r24, r10
    180e:	e0 2d       	mov	r30, r0
    1810:	f1 0d       	add	r31, r1
    1812:	03 9f       	mul	r16, r19
    1814:	f0 0d       	add	r31, r0
    1816:	02 9f       	mul	r16, r18
    1818:	e0 0d       	add	r30, r0
    181a:	f1 1d       	adc	r31, r1
    181c:	4e 9d       	mul	r20, r14
    181e:	e0 0d       	add	r30, r0
    1820:	f1 1d       	adc	r31, r1
    1822:	5e 9d       	mul	r21, r14
    1824:	f0 0d       	add	r31, r0
    1826:	4f 9d       	mul	r20, r15
    1828:	f0 0d       	add	r31, r0
    182a:	7f 93       	push	r23
    182c:	6f 93       	push	r22
    182e:	bf 92       	push	r11
    1830:	af 92       	push	r10
    1832:	5f 93       	push	r21
    1834:	4f 93       	push	r20
    1836:	d5 01       	movw	r26, r10
    1838:	0e 94 95 0d 	call	0x1b2a	; 0x1b2a <__umulhisi3>
    183c:	8b 01       	movw	r16, r22
    183e:	ac 01       	movw	r20, r24
    1840:	d7 01       	movw	r26, r14
    1842:	0e 94 95 0d 	call	0x1b2a	; 0x1b2a <__umulhisi3>
    1846:	eb 01       	movw	r28, r22
    1848:	e8 0f       	add	r30, r24
    184a:	f9 1f       	adc	r31, r25
    184c:	d6 01       	movw	r26, r12
    184e:	0e 94 4c 0c 	call	0x1898	; 0x1898 <__muldi3_6>
    1852:	2f 91       	pop	r18
    1854:	3f 91       	pop	r19
    1856:	d6 01       	movw	r26, r12
    1858:	0e 94 95 0d 	call	0x1b2a	; 0x1b2a <__umulhisi3>
    185c:	c6 0f       	add	r28, r22
    185e:	d7 1f       	adc	r29, r23
    1860:	e8 1f       	adc	r30, r24
    1862:	f9 1f       	adc	r31, r25
    1864:	af 91       	pop	r26
    1866:	bf 91       	pop	r27
    1868:	0e 94 4c 0c 	call	0x1898	; 0x1898 <__muldi3_6>
    186c:	2f 91       	pop	r18
    186e:	3f 91       	pop	r19
    1870:	0e 94 95 0d 	call	0x1b2a	; 0x1b2a <__umulhisi3>
    1874:	c6 0f       	add	r28, r22
    1876:	d7 1f       	adc	r29, r23
    1878:	e8 1f       	adc	r30, r24
    187a:	f9 1f       	adc	r31, r25
    187c:	d6 01       	movw	r26, r12
    187e:	0e 94 95 0d 	call	0x1b2a	; 0x1b2a <__umulhisi3>
    1882:	e6 0f       	add	r30, r22
    1884:	f7 1f       	adc	r31, r23
    1886:	98 01       	movw	r18, r16
    1888:	be 01       	movw	r22, r28
    188a:	cf 01       	movw	r24, r30
    188c:	11 24       	eor	r1, r1
    188e:	0f 91       	pop	r16
    1890:	1f 91       	pop	r17
    1892:	cf 91       	pop	r28
    1894:	df 91       	pop	r29
    1896:	08 95       	ret

00001898 <__muldi3_6>:
    1898:	0e 94 95 0d 	call	0x1b2a	; 0x1b2a <__umulhisi3>
    189c:	46 0f       	add	r20, r22
    189e:	57 1f       	adc	r21, r23
    18a0:	c8 1f       	adc	r28, r24
    18a2:	d9 1f       	adc	r29, r25
    18a4:	08 f4       	brcc	.+2      	; 0x18a8 <__muldi3_6+0x10>
    18a6:	31 96       	adiw	r30, 0x01	; 1
    18a8:	08 95       	ret

000018aa <__moddi3>:
    18aa:	68 94       	set
    18ac:	01 c0       	rjmp	.+2      	; 0x18b0 <__divdi3_moddi3>

000018ae <__divdi3>:
    18ae:	e8 94       	clt

000018b0 <__divdi3_moddi3>:
    18b0:	f9 2f       	mov	r31, r25
    18b2:	f1 2b       	or	r31, r17
    18b4:	12 f0       	brmi	.+4      	; 0x18ba <__divdi3_moddi3+0xa>
    18b6:	0c 94 89 0c 	jmp	0x1912	; 0x1912 <__udivdi3_umoddi3>
    18ba:	a0 e0       	ldi	r26, 0x00	; 0
    18bc:	b0 e0       	ldi	r27, 0x00	; 0
    18be:	e3 e6       	ldi	r30, 0x63	; 99
    18c0:	fc e0       	ldi	r31, 0x0C	; 12
    18c2:	0c 94 fb 0c 	jmp	0x19f6	; 0x19f6 <__prologue_saves__+0xc>
    18c6:	09 2e       	mov	r0, r25
    18c8:	05 94       	asr	r0
    18ca:	22 f4       	brpl	.+8      	; 0x18d4 <__divdi3_moddi3+0x24>
    18cc:	0e 94 e5 0c 	call	0x19ca	; 0x19ca <__negdi2>
    18d0:	11 23       	and	r17, r17
    18d2:	92 f4       	brpl	.+36     	; 0x18f8 <__divdi3_moddi3+0x48>
    18d4:	f0 e8       	ldi	r31, 0x80	; 128
    18d6:	0f 26       	eor	r0, r31
    18d8:	ff ef       	ldi	r31, 0xFF	; 255
    18da:	e0 94       	com	r14
    18dc:	f0 94       	com	r15
    18de:	00 95       	com	r16
    18e0:	10 95       	com	r17
    18e2:	b0 94       	com	r11
    18e4:	c0 94       	com	r12
    18e6:	d0 94       	com	r13
    18e8:	a1 94       	neg	r10
    18ea:	bf 0a       	sbc	r11, r31
    18ec:	cf 0a       	sbc	r12, r31
    18ee:	df 0a       	sbc	r13, r31
    18f0:	ef 0a       	sbc	r14, r31
    18f2:	ff 0a       	sbc	r15, r31
    18f4:	0f 0b       	sbc	r16, r31
    18f6:	1f 0b       	sbc	r17, r31
    18f8:	0e 94 94 0c 	call	0x1928	; 0x1928 <__udivmod64>
    18fc:	07 fc       	sbrc	r0, 7
    18fe:	0e 94 e5 0c 	call	0x19ca	; 0x19ca <__negdi2>
    1902:	cd b7       	in	r28, 0x3d	; 61
    1904:	de b7       	in	r29, 0x3e	; 62
    1906:	ec e0       	ldi	r30, 0x0C	; 12
    1908:	0c 94 17 0d 	jmp	0x1a2e	; 0x1a2e <__epilogue_restores__+0xc>

0000190c <__umoddi3>:
    190c:	68 94       	set
    190e:	01 c0       	rjmp	.+2      	; 0x1912 <__udivdi3_umoddi3>

00001910 <__udivdi3>:
    1910:	e8 94       	clt

00001912 <__udivdi3_umoddi3>:
    1912:	8f 92       	push	r8
    1914:	9f 92       	push	r9
    1916:	cf 93       	push	r28
    1918:	df 93       	push	r29
    191a:	0e 94 94 0c 	call	0x1928	; 0x1928 <__udivmod64>
    191e:	df 91       	pop	r29
    1920:	cf 91       	pop	r28
    1922:	9f 90       	pop	r9
    1924:	8f 90       	pop	r8
    1926:	08 95       	ret

00001928 <__udivmod64>:
    1928:	88 24       	eor	r8, r8
    192a:	99 24       	eor	r9, r9
    192c:	f4 01       	movw	r30, r8
    192e:	e4 01       	movw	r28, r8
    1930:	b0 e4       	ldi	r27, 0x40	; 64
    1932:	9f 93       	push	r25
    1934:	aa 27       	eor	r26, r26
    1936:	9a 15       	cp	r25, r10
    1938:	8b 04       	cpc	r8, r11
    193a:	9c 04       	cpc	r9, r12
    193c:	ed 05       	cpc	r30, r13
    193e:	fe 05       	cpc	r31, r14
    1940:	cf 05       	cpc	r28, r15
    1942:	d0 07       	cpc	r29, r16
    1944:	a1 07       	cpc	r26, r17
    1946:	98 f4       	brcc	.+38     	; 0x196e <__udivmod64+0x46>
    1948:	ad 2f       	mov	r26, r29
    194a:	dc 2f       	mov	r29, r28
    194c:	cf 2f       	mov	r28, r31
    194e:	fe 2f       	mov	r31, r30
    1950:	e9 2d       	mov	r30, r9
    1952:	98 2c       	mov	r9, r8
    1954:	89 2e       	mov	r8, r25
    1956:	98 2f       	mov	r25, r24
    1958:	87 2f       	mov	r24, r23
    195a:	76 2f       	mov	r23, r22
    195c:	65 2f       	mov	r22, r21
    195e:	54 2f       	mov	r21, r20
    1960:	43 2f       	mov	r20, r19
    1962:	32 2f       	mov	r19, r18
    1964:	22 27       	eor	r18, r18
    1966:	b8 50       	subi	r27, 0x08	; 8
    1968:	31 f7       	brne	.-52     	; 0x1936 <__udivmod64+0xe>
    196a:	bf 91       	pop	r27
    196c:	27 c0       	rjmp	.+78     	; 0x19bc <__udivmod64+0x94>
    196e:	1b 2e       	mov	r1, r27
    1970:	bf 91       	pop	r27
    1972:	bb 27       	eor	r27, r27
    1974:	22 0f       	add	r18, r18
    1976:	33 1f       	adc	r19, r19
    1978:	44 1f       	adc	r20, r20
    197a:	55 1f       	adc	r21, r21
    197c:	66 1f       	adc	r22, r22
    197e:	77 1f       	adc	r23, r23
    1980:	88 1f       	adc	r24, r24
    1982:	99 1f       	adc	r25, r25
    1984:	88 1c       	adc	r8, r8
    1986:	99 1c       	adc	r9, r9
    1988:	ee 1f       	adc	r30, r30
    198a:	ff 1f       	adc	r31, r31
    198c:	cc 1f       	adc	r28, r28
    198e:	dd 1f       	adc	r29, r29
    1990:	aa 1f       	adc	r26, r26
    1992:	bb 1f       	adc	r27, r27
    1994:	8a 14       	cp	r8, r10
    1996:	9b 04       	cpc	r9, r11
    1998:	ec 05       	cpc	r30, r12
    199a:	fd 05       	cpc	r31, r13
    199c:	ce 05       	cpc	r28, r14
    199e:	df 05       	cpc	r29, r15
    19a0:	a0 07       	cpc	r26, r16
    19a2:	b1 07       	cpc	r27, r17
    19a4:	48 f0       	brcs	.+18     	; 0x19b8 <__udivmod64+0x90>
    19a6:	8a 18       	sub	r8, r10
    19a8:	9b 08       	sbc	r9, r11
    19aa:	ec 09       	sbc	r30, r12
    19ac:	fd 09       	sbc	r31, r13
    19ae:	ce 09       	sbc	r28, r14
    19b0:	df 09       	sbc	r29, r15
    19b2:	a0 0b       	sbc	r26, r16
    19b4:	b1 0b       	sbc	r27, r17
    19b6:	21 60       	ori	r18, 0x01	; 1
    19b8:	1a 94       	dec	r1
    19ba:	e1 f6       	brne	.-72     	; 0x1974 <__udivmod64+0x4c>
    19bc:	2e f4       	brtc	.+10     	; 0x19c8 <__udivmod64+0xa0>
    19be:	94 01       	movw	r18, r8
    19c0:	af 01       	movw	r20, r30
    19c2:	be 01       	movw	r22, r28
    19c4:	cd 01       	movw	r24, r26
    19c6:	00 0c       	add	r0, r0
    19c8:	08 95       	ret

000019ca <__negdi2>:
    19ca:	60 95       	com	r22
    19cc:	70 95       	com	r23
    19ce:	80 95       	com	r24
    19d0:	90 95       	com	r25
    19d2:	30 95       	com	r19
    19d4:	40 95       	com	r20
    19d6:	50 95       	com	r21
    19d8:	21 95       	neg	r18
    19da:	3f 4f       	sbci	r19, 0xFF	; 255
    19dc:	4f 4f       	sbci	r20, 0xFF	; 255
    19de:	5f 4f       	sbci	r21, 0xFF	; 255
    19e0:	6f 4f       	sbci	r22, 0xFF	; 255
    19e2:	7f 4f       	sbci	r23, 0xFF	; 255
    19e4:	8f 4f       	sbci	r24, 0xFF	; 255
    19e6:	9f 4f       	sbci	r25, 0xFF	; 255
    19e8:	08 95       	ret

000019ea <__prologue_saves__>:
    19ea:	2f 92       	push	r2
    19ec:	3f 92       	push	r3
    19ee:	4f 92       	push	r4
    19f0:	5f 92       	push	r5
    19f2:	6f 92       	push	r6
    19f4:	7f 92       	push	r7
    19f6:	8f 92       	push	r8
    19f8:	9f 92       	push	r9
    19fa:	af 92       	push	r10
    19fc:	bf 92       	push	r11
    19fe:	cf 92       	push	r12
    1a00:	df 92       	push	r13
    1a02:	ef 92       	push	r14
    1a04:	ff 92       	push	r15
    1a06:	0f 93       	push	r16
    1a08:	1f 93       	push	r17
    1a0a:	cf 93       	push	r28
    1a0c:	df 93       	push	r29
    1a0e:	cd b7       	in	r28, 0x3d	; 61
    1a10:	de b7       	in	r29, 0x3e	; 62
    1a12:	ca 1b       	sub	r28, r26
    1a14:	db 0b       	sbc	r29, r27
    1a16:	0f b6       	in	r0, 0x3f	; 63
    1a18:	f8 94       	cli
    1a1a:	de bf       	out	0x3e, r29	; 62
    1a1c:	0f be       	out	0x3f, r0	; 63
    1a1e:	cd bf       	out	0x3d, r28	; 61
    1a20:	09 94       	ijmp

00001a22 <__epilogue_restores__>:
    1a22:	2a 88       	ldd	r2, Y+18	; 0x12
    1a24:	39 88       	ldd	r3, Y+17	; 0x11
    1a26:	48 88       	ldd	r4, Y+16	; 0x10
    1a28:	5f 84       	ldd	r5, Y+15	; 0x0f
    1a2a:	6e 84       	ldd	r6, Y+14	; 0x0e
    1a2c:	7d 84       	ldd	r7, Y+13	; 0x0d
    1a2e:	8c 84       	ldd	r8, Y+12	; 0x0c
    1a30:	9b 84       	ldd	r9, Y+11	; 0x0b
    1a32:	aa 84       	ldd	r10, Y+10	; 0x0a
    1a34:	b9 84       	ldd	r11, Y+9	; 0x09
    1a36:	c8 84       	ldd	r12, Y+8	; 0x08
    1a38:	df 80       	ldd	r13, Y+7	; 0x07
    1a3a:	ee 80       	ldd	r14, Y+6	; 0x06
    1a3c:	fd 80       	ldd	r15, Y+5	; 0x05
    1a3e:	0c 81       	ldd	r16, Y+4	; 0x04
    1a40:	1b 81       	ldd	r17, Y+3	; 0x03
    1a42:	aa 81       	ldd	r26, Y+2	; 0x02
    1a44:	b9 81       	ldd	r27, Y+1	; 0x01
    1a46:	ce 0f       	add	r28, r30
    1a48:	d1 1d       	adc	r29, r1
    1a4a:	0f b6       	in	r0, 0x3f	; 63
    1a4c:	f8 94       	cli
    1a4e:	de bf       	out	0x3e, r29	; 62
    1a50:	0f be       	out	0x3f, r0	; 63
    1a52:	cd bf       	out	0x3d, r28	; 61
    1a54:	ed 01       	movw	r28, r26
    1a56:	08 95       	ret

00001a58 <__ashldi3>:
    1a58:	0f 93       	push	r16
    1a5a:	08 30       	cpi	r16, 0x08	; 8
    1a5c:	90 f0       	brcs	.+36     	; 0x1a82 <__ashldi3+0x2a>
    1a5e:	98 2f       	mov	r25, r24
    1a60:	87 2f       	mov	r24, r23
    1a62:	76 2f       	mov	r23, r22
    1a64:	65 2f       	mov	r22, r21
    1a66:	54 2f       	mov	r21, r20
    1a68:	43 2f       	mov	r20, r19
    1a6a:	32 2f       	mov	r19, r18
    1a6c:	22 27       	eor	r18, r18
    1a6e:	08 50       	subi	r16, 0x08	; 8
    1a70:	f4 cf       	rjmp	.-24     	; 0x1a5a <__ashldi3+0x2>
    1a72:	22 0f       	add	r18, r18
    1a74:	33 1f       	adc	r19, r19
    1a76:	44 1f       	adc	r20, r20
    1a78:	55 1f       	adc	r21, r21
    1a7a:	66 1f       	adc	r22, r22
    1a7c:	77 1f       	adc	r23, r23
    1a7e:	88 1f       	adc	r24, r24
    1a80:	99 1f       	adc	r25, r25
    1a82:	0a 95       	dec	r16
    1a84:	b2 f7       	brpl	.-20     	; 0x1a72 <__ashldi3+0x1a>
    1a86:	0f 91       	pop	r16
    1a88:	08 95       	ret

00001a8a <__ashrdi3>:
    1a8a:	97 fb       	bst	r25, 7
    1a8c:	10 f8       	bld	r1, 0

00001a8e <__lshrdi3>:
    1a8e:	16 94       	lsr	r1
    1a90:	00 08       	sbc	r0, r0
    1a92:	0f 93       	push	r16
    1a94:	08 30       	cpi	r16, 0x08	; 8
    1a96:	98 f0       	brcs	.+38     	; 0x1abe <__lshrdi3+0x30>
    1a98:	08 50       	subi	r16, 0x08	; 8
    1a9a:	23 2f       	mov	r18, r19
    1a9c:	34 2f       	mov	r19, r20
    1a9e:	45 2f       	mov	r20, r21
    1aa0:	56 2f       	mov	r21, r22
    1aa2:	67 2f       	mov	r22, r23
    1aa4:	78 2f       	mov	r23, r24
    1aa6:	89 2f       	mov	r24, r25
    1aa8:	90 2d       	mov	r25, r0
    1aaa:	f4 cf       	rjmp	.-24     	; 0x1a94 <__lshrdi3+0x6>
    1aac:	05 94       	asr	r0
    1aae:	97 95       	ror	r25
    1ab0:	87 95       	ror	r24
    1ab2:	77 95       	ror	r23
    1ab4:	67 95       	ror	r22
    1ab6:	57 95       	ror	r21
    1ab8:	47 95       	ror	r20
    1aba:	37 95       	ror	r19
    1abc:	27 95       	ror	r18
    1abe:	0a 95       	dec	r16
    1ac0:	aa f7       	brpl	.-22     	; 0x1aac <__lshrdi3+0x1e>
    1ac2:	0f 91       	pop	r16
    1ac4:	08 95       	ret

00001ac6 <__adddi3>:
    1ac6:	2a 0d       	add	r18, r10
    1ac8:	3b 1d       	adc	r19, r11
    1aca:	4c 1d       	adc	r20, r12
    1acc:	5d 1d       	adc	r21, r13
    1ace:	6e 1d       	adc	r22, r14
    1ad0:	7f 1d       	adc	r23, r15
    1ad2:	80 1f       	adc	r24, r16
    1ad4:	91 1f       	adc	r25, r17
    1ad6:	08 95       	ret

00001ad8 <__subdi3>:
    1ad8:	2a 19       	sub	r18, r10
    1ada:	3b 09       	sbc	r19, r11
    1adc:	4c 09       	sbc	r20, r12
    1ade:	5d 09       	sbc	r21, r13
    1ae0:	6e 09       	sbc	r22, r14
    1ae2:	7f 09       	sbc	r23, r15
    1ae4:	80 0b       	sbc	r24, r16
    1ae6:	91 0b       	sbc	r25, r17
    1ae8:	08 95       	ret

00001aea <__cmpdi2_s8>:
    1aea:	00 24       	eor	r0, r0
    1aec:	a7 fd       	sbrc	r26, 7
    1aee:	00 94       	com	r0
    1af0:	2a 17       	cp	r18, r26
    1af2:	30 05       	cpc	r19, r0
    1af4:	40 05       	cpc	r20, r0
    1af6:	50 05       	cpc	r21, r0
    1af8:	60 05       	cpc	r22, r0
    1afa:	70 05       	cpc	r23, r0
    1afc:	80 05       	cpc	r24, r0
    1afe:	90 05       	cpc	r25, r0
    1b00:	08 95       	ret

00001b02 <__udivmodhi4>:
    1b02:	aa 1b       	sub	r26, r26
    1b04:	bb 1b       	sub	r27, r27
    1b06:	51 e1       	ldi	r21, 0x11	; 17
    1b08:	07 c0       	rjmp	.+14     	; 0x1b18 <__udivmodhi4_ep>

00001b0a <__udivmodhi4_loop>:
    1b0a:	aa 1f       	adc	r26, r26
    1b0c:	bb 1f       	adc	r27, r27
    1b0e:	a6 17       	cp	r26, r22
    1b10:	b7 07       	cpc	r27, r23
    1b12:	10 f0       	brcs	.+4      	; 0x1b18 <__udivmodhi4_ep>
    1b14:	a6 1b       	sub	r26, r22
    1b16:	b7 0b       	sbc	r27, r23

00001b18 <__udivmodhi4_ep>:
    1b18:	88 1f       	adc	r24, r24
    1b1a:	99 1f       	adc	r25, r25
    1b1c:	5a 95       	dec	r21
    1b1e:	a9 f7       	brne	.-22     	; 0x1b0a <__udivmodhi4_loop>
    1b20:	80 95       	com	r24
    1b22:	90 95       	com	r25
    1b24:	bc 01       	movw	r22, r24
    1b26:	cd 01       	movw	r24, r26
    1b28:	08 95       	ret

00001b2a <__umulhisi3>:
    1b2a:	a2 9f       	mul	r26, r18
    1b2c:	b0 01       	movw	r22, r0
    1b2e:	b3 9f       	mul	r27, r19
    1b30:	c0 01       	movw	r24, r0
    1b32:	a3 9f       	mul	r26, r19
    1b34:	70 0d       	add	r23, r0
    1b36:	81 1d       	adc	r24, r1
    1b38:	11 24       	eor	r1, r1
    1b3a:	91 1d       	adc	r25, r1
    1b3c:	b2 9f       	mul	r27, r18
    1b3e:	70 0d       	add	r23, r0
    1b40:	81 1d       	adc	r24, r1
    1b42:	11 24       	eor	r1, r1
    1b44:	91 1d       	adc	r25, r1
    1b46:	08 95       	ret

00001b48 <__itoa_ncheck>:
    1b48:	bb 27       	eor	r27, r27
    1b4a:	4a 30       	cpi	r20, 0x0A	; 10
    1b4c:	31 f4       	brne	.+12     	; 0x1b5a <__itoa_ncheck+0x12>
    1b4e:	99 23       	and	r25, r25
    1b50:	22 f4       	brpl	.+8      	; 0x1b5a <__itoa_ncheck+0x12>
    1b52:	bd e2       	ldi	r27, 0x2D	; 45
    1b54:	90 95       	com	r25
    1b56:	81 95       	neg	r24
    1b58:	9f 4f       	sbci	r25, 0xFF	; 255
    1b5a:	0c 94 b0 0d 	jmp	0x1b60	; 0x1b60 <__utoa_common>

00001b5e <__utoa_ncheck>:
    1b5e:	bb 27       	eor	r27, r27

00001b60 <__utoa_common>:
    1b60:	fb 01       	movw	r30, r22
    1b62:	55 27       	eor	r21, r21
    1b64:	aa 27       	eor	r26, r26
    1b66:	88 0f       	add	r24, r24
    1b68:	99 1f       	adc	r25, r25
    1b6a:	aa 1f       	adc	r26, r26
    1b6c:	a4 17       	cp	r26, r20
    1b6e:	10 f0       	brcs	.+4      	; 0x1b74 <__utoa_common+0x14>
    1b70:	a4 1b       	sub	r26, r20
    1b72:	83 95       	inc	r24
    1b74:	50 51       	subi	r21, 0x10	; 16
    1b76:	b9 f7       	brne	.-18     	; 0x1b66 <__utoa_common+0x6>
    1b78:	a0 5d       	subi	r26, 0xD0	; 208
    1b7a:	aa 33       	cpi	r26, 0x3A	; 58
    1b7c:	08 f0       	brcs	.+2      	; 0x1b80 <__utoa_common+0x20>
    1b7e:	a9 5d       	subi	r26, 0xD9	; 217
    1b80:	a1 93       	st	Z+, r26
    1b82:	00 97       	sbiw	r24, 0x00	; 0
    1b84:	79 f7       	brne	.-34     	; 0x1b64 <__utoa_common+0x4>
    1b86:	b1 11       	cpse	r27, r1
    1b88:	b1 93       	st	Z+, r27
    1b8a:	11 92       	st	Z+, r1
    1b8c:	cb 01       	movw	r24, r22
    1b8e:	0c 94 c9 0d 	jmp	0x1b92	; 0x1b92 <strrev>

00001b92 <strrev>:
    1b92:	dc 01       	movw	r26, r24
    1b94:	fc 01       	movw	r30, r24
    1b96:	67 2f       	mov	r22, r23
    1b98:	71 91       	ld	r23, Z+
    1b9a:	77 23       	and	r23, r23
    1b9c:	e1 f7       	brne	.-8      	; 0x1b96 <strrev+0x4>
    1b9e:	32 97       	sbiw	r30, 0x02	; 2
    1ba0:	04 c0       	rjmp	.+8      	; 0x1baa <strrev+0x18>
    1ba2:	7c 91       	ld	r23, X
    1ba4:	6d 93       	st	X+, r22
    1ba6:	70 83       	st	Z, r23
    1ba8:	62 91       	ld	r22, -Z
    1baa:	ae 17       	cp	r26, r30
    1bac:	bf 07       	cpc	r27, r31
    1bae:	c8 f3       	brcs	.-14     	; 0x1ba2 <strrev+0x10>
    1bb0:	08 95       	ret

00001bb2 <_exit>:
    1bb2:	f8 94       	cli

00001bb4 <__stop_program>:
    1bb4:	ff cf       	rjmp	.-2      	; 0x1bb4 <__stop_program>
